
========================================================================

** ELF Header Information

    File Name: .\obj\I2C_IMU.axf

    Machine class: ELFCLASS32 (32-bit)
    Data encoding: ELFDATA2LSB (Little endian)
    Header version: EV_CURRENT (Current version)
    Operating System ABI: none
    ABI Version: 0
    File Type: ET_EXEC (Executable) (2)
    Machine: EM_ARM (ARM)

    Image Entry point: 0x0000012d
    Flags: EF_ARM_HASENTRY + EF_ARM_ABI_FLOAT_SOFT (0x05000202)

    ARM ELF revision: 5 (ABI version 2)

    Conforms to Soft float procedure-call standard

    Built with
    Component: ARM Compiler 5.06 update 5 (build 528) Tool: armasm [4d35e1]
    Component: ARM Compiler 5.06 update 5 (build 528) Tool: armlink [4d35e2]

    Header size: 52 bytes (0x34)
    Program header entry size: 32 bytes (0x20)
    Section header entry size: 40 bytes (0x28)

    Program header entries: 1
    Section header entries: 16

    Program header offset: 365176 (0x00059278)
    Section header offset: 365208 (0x00059298)

    Section header string table index: 15

========================================================================

** Program header #0 (PT_LOAD) [PF_X + PF_W + PF_R + PF_ARM_ENTRY]
    Size : 13904 bytes (11420 bytes in file)
    Virtual address: 0x00000000 (Alignment 8)


========================================================================

** Section #1 'ER_RO' (SHT_PROGBITS) [SHF_ALLOC + SHF_EXECINSTR]
    Size   : 11312 bytes (alignment 8)
    Address: 0x00000000

    $d.realdata
    RESET
    __Vectors
        0x00000000:    20000a20     ..     DCD    536873504
        0x00000004:    0000012d    -...    DCD    301
        0x00000008:    0000014d    M...    DCD    333
        0x0000000c:    000000d5    ....    DCD    213
        0x00000010:    00000000    ....    DCD    0
        0x00000014:    00000000    ....    DCD    0
        0x00000018:    00000000    ....    DCD    0
        0x0000001c:    00000000    ....    DCD    0
        0x00000020:    00000000    ....    DCD    0
        0x00000024:    00000000    ....    DCD    0
        0x00000028:    00000000    ....    DCD    0
        0x0000002c:    00000151    Q...    DCD    337
        0x00000030:    00000000    ....    DCD    0
        0x00000034:    00000000    ....    DCD    0
        0x00000038:    00000153    S...    DCD    339
        0x0000003c:    00000155    U...    DCD    341
        0x00000040:    00000157    W...    DCD    343
        0x00000044:    00000157    W...    DCD    343
        0x00000048:    00000157    W...    DCD    343
        0x0000004c:    00000157    W...    DCD    343
        0x00000050:    00000157    W...    DCD    343
        0x00000054:    00000157    W...    DCD    343
        0x00000058:    00000157    W...    DCD    343
        0x0000005c:    00000157    W...    DCD    343
        0x00000060:    00000157    W...    DCD    343
        0x00000064:    00000157    W...    DCD    343
        0x00000068:    00000157    W...    DCD    343
        0x0000006c:    00000157    W...    DCD    343
        0x00000070:    00000157    W...    DCD    343
        0x00000074:    00000157    W...    DCD    343
        0x00000078:    00000157    W...    DCD    343
        0x0000007c:    00000157    W...    DCD    343
        0x00000080:    00000157    W...    DCD    343
        0x00000084:    00000157    W...    DCD    343
        0x00000088:    00000c6d    m...    DCD    3181
        0x0000008c:    00000c77    w...    DCD    3191
        0x00000090:    00000157    W...    DCD    343
        0x00000094:    00000157    W...    DCD    343
        0x00000098:    00000157    W...    DCD    343
        0x0000009c:    00000157    W...    DCD    343
        0x000000a0:    00000157    W...    DCD    343
        0x000000a4:    00000157    W...    DCD    343
        0x000000a8:    00000157    W...    DCD    343
        0x000000ac:    00000157    W...    DCD    343
        0x000000b0:    00000157    W...    DCD    343
        0x000000b4:    00000157    W...    DCD    343
        0x000000b8:    00000157    W...    DCD    343
        0x000000bc:    00000157    W...    DCD    343
    $t
    .ARM.Collect$$$$00000000
    .ARM.Collect$$$$00000001
    __main
    _main_stk
        0x000000c0:    4803        .H      LDR      r0,__lit__00000000 ; [0xd0] = 0x20000a20
        0x000000c2:    4685        .F      MOV      sp,r0
    .ARM.Collect$$$$00000004
    _main_scatterload
        0x000000c4:    f000fb9e    ....    BL       __scatterload ; 0x804
    .ARM.Collect$$$$00000008
    .ARM.Collect$$$$0000000A
    .ARM.Collect$$$$0000000B
    __main_after_scatterload
    _main_clock
    _main_cpp_init
    _main_init
        0x000000c8:    4800        .H      LDR      r0,[pc,#0] ; [0xcc] = 0x1db1
        0x000000ca:    4700        .G      BX       r0
    $d
        0x000000cc:    00001db1    ....    DCD    7601
    .ARM.Collect$$$$00002712
    __lit__00000000
    .ARM.Collect$$$$0000000D
    .ARM.Collect$$$$0000000F
    __rt_final_cpp
    __rt_final_exit
        0x000000d0:    20000a20     ..     DCD    536873504
    $t
    .emb_text
    HardFault_Handler
        0x000000d4:    4670        pF      MOV      r0,lr
        0x000000d6:    0740        @.      LSLS     r0,r0,#29
        0x000000d8:    d402        ..      BMI      0xe0 ; HardFault_Handler + 12
        0x000000da:    f3ef8008    ....    MRS      r0,MSP
        0x000000de:    e001        ..      B        0xe4 ; HardFault_Handler + 16
        0x000000e0:    f3ef8009    ....    MRS      r0,PSP
        0x000000e4:    6981        .i      LDR      r1,[r0,#0x18]
        0x000000e6:    880b        ..      LDRH     r3,[r1,#0]
        0x000000e8:    4a09        .J      LDR      r2,[pc,#36] ; [0x110] = 0xbeab
        0x000000ea:    4293        .B      CMP      r3,r2
        0x000000ec:    d102        ..      BNE      0xf4 ; HardFault_Handler + 32
        0x000000ee:    3104        .1      ADDS     r1,#4
        0x000000f0:    6181        .a      STR      r1,[r0,#0x18]
        0x000000f2:    4770        pG      BX       lr
        0x000000f4:    2004        .       MOVS     r0,#4
        0x000000f6:    4671        qF      MOV      r1,lr
        0x000000f8:    4208        .B      TST      r0,r1
        0x000000fa:    d002        ..      BEQ      0x102 ; HardFault_Handler + 46
        0x000000fc:    f3ef8009    ....    MRS      r0,PSP
        0x00000100:    e001        ..      B        0x106 ; HardFault_Handler + 50
        0x00000102:    f3ef8008    ....    MRS      r0,MSP
        0x00000106:    4671        qF      MOV      r1,lr
        0x00000108:    4a02        .J      LDR      r2,[pc,#8] ; [0x114] = 0xc45
        0x0000010a:    4710        .G      BX       r2
        0x0000010c:    e7fe        ..      B        0x10c ; HardFault_Handler + 56
    $d
        0x0000010e:    0000        ..      DCW    0
        0x00000110:    0000beab    ....    DCD    48811
        0x00000114:    00000c45    E...    DCD    3141
    $t
    SH_DoCommand
        0x00000118:    beab        ..      BKPT     #0xab
        0x0000011a:    e001        ..      B        0x120 ; SH_DoCommand + 8
        0x0000011c:    2000        .       MOVS     r0,#0
        0x0000011e:    4770        pG      BX       lr
        0x00000120:    2a00        .*      CMP      r2,#0
        0x00000122:    d000        ..      BEQ      0x126 ; SH_DoCommand + 14
        0x00000124:    6010        .`      STR      r0,[r2,#0]
        0x00000126:    2001        .       MOVS     r0,#1
        0x00000128:    4770        pG      BX       lr
        0x0000012a:    0000        ..      MOVS     r0,r0
    .text
    Reset_Handler
        0x0000012c:    480a        .H      LDR      r0,[pc,#40] ; [0x158] = 0x50000100
        0x0000012e:    490b        .I      LDR      r1,[pc,#44] ; [0x15c] = 0x59
        0x00000130:    6001        .`      STR      r1,[r0,#0]
        0x00000132:    490b        .I      LDR      r1,[pc,#44] ; [0x160] = 0x16
        0x00000134:    6001        .`      STR      r1,[r0,#0]
        0x00000136:    490b        .I      LDR      r1,[pc,#44] ; [0x164] = 0x88
        0x00000138:    6001        .`      STR      r1,[r0,#0]
        0x0000013a:    4a0b        .J      LDR      r2,[pc,#44] ; [0x168] = 0x50000024
        0x0000013c:    490b        .I      LDR      r1,[pc,#44] ; [0x16c] = 0x5aa5
        0x0000013e:    6011        .`      STR      r1,[r2,#0]
        0x00000140:    2100        .!      MOVS     r1,#0
        0x00000142:    6001        .`      STR      r1,[r0,#0]
        0x00000144:    480a        .H      LDR      r0,[pc,#40] ; [0x170] = 0x14b1
        0x00000146:    4780        .G      BLX      r0
        0x00000148:    480a        .H      LDR      r0,[pc,#40] ; [0x174] = 0xc1
        0x0000014a:    4700        .G      BX       r0
    NMI_Handler
        0x0000014c:    e7fe        ..      B        NMI_Handler ; 0x14c
        0x0000014e:    e7fe        ..      B        0x14e ; NMI_Handler + 2
    SVC_Handler
        0x00000150:    e7fe        ..      B        SVC_Handler ; 0x150
    PendSV_Handler
        0x00000152:    e7fe        ..      B        PendSV_Handler ; 0x152
    SysTick_Handler
        0x00000154:    e7fe        ..      B        SysTick_Handler ; 0x154
    Default_Handler
    ACMP_IRQHandler
    ADC_IRQHandler
    BOD_IRQHandler
    CAN0_IRQHandler
    CAN1_IRQHandler
    EINT0_IRQHandler
    EINT1_IRQHandler
    GPAB_IRQHandler
    GPCDEF_IRQHandler
    I2S_IRQHandler
    PDMA_IRQHandler
    PS2_IRQHandler
    PWMA_IRQHandler
    PWMB_IRQHandler
    PWRWU_IRQHandler
    RTC_IRQHandler
    SC012_IRQHandler
    SPI0_IRQHandler
    SPI1_IRQHandler
    SPI2_IRQHandler
    SPI3_IRQHandler
    TMR0_IRQHandler
    TMR1_IRQHandler
    TMR2_IRQHandler
    TMR3_IRQHandler
    UART02_IRQHandler
    UART1_IRQHandler
    USBD_IRQHandler
    WDT_IRQHandler
        0x00000156:    e7fe        ..      B        Default_Handler ; 0x156
    $d
        0x00000158:    50000100    ...P    DCD    1342177536
        0x0000015c:    00000059    Y...    DCD    89
        0x00000160:    00000016    ....    DCD    22
        0x00000164:    00000088    ....    DCD    136
        0x00000168:    50000024    $..P    DCD    1342177316
        0x0000016c:    00005aa5    .Z..    DCD    23205
        0x00000170:    000014b1    ....    DCD    5297
        0x00000174:    000000c1    ....    DCD    193
    $t
    .text
    __aeabi_uidiv
    __aeabi_uidivmod
        0x00000178:    b530        0.      PUSH     {r4,r5,lr}
        0x0000017a:    460b        .F      MOV      r3,r1
        0x0000017c:    4601        .F      MOV      r1,r0
        0x0000017e:    2000        .       MOVS     r0,#0
        0x00000180:    2220         "      MOVS     r2,#0x20
        0x00000182:    2401        .$      MOVS     r4,#1
        0x00000184:    e009        ..      B        0x19a ; __aeabi_uidiv + 34
        0x00000186:    460d        .F      MOV      r5,r1
        0x00000188:    40d5        .@      LSRS     r5,r5,r2
        0x0000018a:    429d        .B      CMP      r5,r3
        0x0000018c:    d305        ..      BCC      0x19a ; __aeabi_uidiv + 34
        0x0000018e:    461d        .F      MOV      r5,r3
        0x00000190:    4095        .@      LSLS     r5,r5,r2
        0x00000192:    1b49        I.      SUBS     r1,r1,r5
        0x00000194:    4625        %F      MOV      r5,r4
        0x00000196:    4095        .@      LSLS     r5,r5,r2
        0x00000198:    1940        @.      ADDS     r0,r0,r5
        0x0000019a:    4615        .F      MOV      r5,r2
        0x0000019c:    1e52        R.      SUBS     r2,r2,#1
        0x0000019e:    2d00        .-      CMP      r5,#0
        0x000001a0:    dcf1        ..      BGT      0x186 ; __aeabi_uidiv + 14
        0x000001a2:    bd30        0.      POP      {r4,r5,pc}
    .text
    __aeabi_dadd
        0x000001a4:    b5f0        ..      PUSH     {r4-r7,lr}
        0x000001a6:    4607        .F      MOV      r7,r0
        0x000001a8:    4608        .F      MOV      r0,r1
        0x000001aa:    4058        X@      EORS     r0,r0,r3
        0x000001ac:    b087        ..      SUB      sp,sp,#0x1c
        0x000001ae:    0fc0        ..      LSRS     r0,r0,#31
        0x000001b0:    9004        ..      STR      r0,[sp,#0x10]
        0x000001b2:    0048        H.      LSLS     r0,r1,#1
        0x000001b4:    460e        .F      MOV      r6,r1
        0x000001b6:    0059        Y.      LSLS     r1,r3,#1
        0x000001b8:    0840        @.      LSRS     r0,r0,#1
        0x000001ba:    0849        I.      LSRS     r1,r1,#1
        0x000001bc:    1abc        ..      SUBS     r4,r7,r2
        0x000001be:    4188        .A      SBCS     r0,r0,r1
        0x000001c0:    d205        ..      BCS      0x1ce ; __aeabi_dadd + 42
        0x000001c2:    4638        8F      MOV      r0,r7
        0x000001c4:    4631        1F      MOV      r1,r6
        0x000001c6:    461e        .F      MOV      r6,r3
        0x000001c8:    4617        .F      MOV      r7,r2
        0x000001ca:    460b        .F      MOV      r3,r1
        0x000001cc:    4602        .F      MOV      r2,r0
        0x000001ce:    0058        X.      LSLS     r0,r3,#1
        0x000001d0:    0840        @.      LSRS     r0,r0,#1
        0x000001d2:    4310        .C      ORRS     r0,r0,r2
        0x000001d4:    d04c        L.      BEQ      0x270 ; __aeabi_dadd + 204
        0x000001d6:    0d30        0.      LSRS     r0,r6,#20
        0x000001d8:    9003        ..      STR      r0,[sp,#0xc]
        0x000001da:    0540        @.      LSLS     r0,r0,#21
        0x000001dc:    0059        Y.      LSLS     r1,r3,#1
        0x000001de:    0d40        @.      LSRS     r0,r0,#21
        0x000001e0:    0d49        I.      LSRS     r1,r1,#21
        0x000001e2:    9005        ..      STR      r0,[sp,#0x14]
        0x000001e4:    1a40        @.      SUBS     r0,r0,r1
        0x000001e6:    9002        ..      STR      r0,[sp,#8]
        0x000001e8:    2840        @(      CMP      r0,#0x40
        0x000001ea:    da72        r.      BGE      0x2d2 ; __aeabi_dadd + 302
        0x000001ec:    0318        ..      LSLS     r0,r3,#12
        0x000001ee:    2101        .!      MOVS     r1,#1
        0x000001f0:    0b00        ..      LSRS     r0,r0,#12
        0x000001f2:    0509        ..      LSLS     r1,r1,#20
        0x000001f4:    4308        .C      ORRS     r0,r0,r1
        0x000001f6:    9001        ..      STR      r0,[sp,#4]
        0x000001f8:    9804        ..      LDR      r0,[sp,#0x10]
        0x000001fa:    9200        ..      STR      r2,[sp,#0]
        0x000001fc:    2800        .(      CMP      r0,#0
        0x000001fe:    d005        ..      BEQ      0x20c ; __aeabi_dadd + 104
        0x00000200:    9901        ..      LDR      r1,[sp,#4]
        0x00000202:    4252        RB      RSBS     r2,r2,#0
        0x00000204:    2000        .       MOVS     r0,#0
        0x00000206:    4188        .A      SBCS     r0,r0,r1
        0x00000208:    9200        ..      STR      r2,[sp,#0]
        0x0000020a:    9001        ..      STR      r0,[sp,#4]
        0x0000020c:    9802        ..      LDR      r0,[sp,#8]
        0x0000020e:    2140        @!      MOVS     r1,#0x40
        0x00000210:    1a0a        ..      SUBS     r2,r1,r0
        0x00000212:    9901        ..      LDR      r1,[sp,#4]
        0x00000214:    9800        ..      LDR      r0,[sp,#0]
        0x00000216:    f000f9b7    ....    BL       __aeabi_llsl ; 0x588
        0x0000021a:    4605        .F      MOV      r5,r0
        0x0000021c:    460c        .F      MOV      r4,r1
        0x0000021e:    466b        kF      MOV      r3,sp
        0x00000220:    cb07        ..      LDM      r3!,{r0-r2}
        0x00000222:    f000f9c1    ....    BL       __aeabi_lasr ; 0x5a8
        0x00000226:    19c0        ..      ADDS     r0,r0,r7
        0x00000228:    4171        qA      ADCS     r1,r1,r6
        0x0000022a:    9a03        ..      LDR      r2,[sp,#0xc]
        0x0000022c:    0d0e        ..      LSRS     r6,r1,#20
        0x0000022e:    2300        .#      MOVS     r3,#0
        0x00000230:    17d7        ..      ASRS     r7,r2,#31
        0x00000232:    4056        V@      EORS     r6,r6,r2
        0x00000234:    461a        .F      MOV      r2,r3
        0x00000236:    407a        z@      EORS     r2,r2,r7
        0x00000238:    4316        .C      ORRS     r6,r6,r2
        0x0000023a:    d044        D.      BEQ      0x2c6 ; __aeabi_dadd + 290
        0x0000023c:    9a04        ..      LDR      r2,[sp,#0x10]
        0x0000023e:    2a00        .*      CMP      r2,#0
        0x00000240:    d02d        -.      BEQ      0x29e ; __aeabi_dadd + 250
        0x00000242:    9a02        ..      LDR      r2,[sp,#8]
        0x00000244:    2a01        .*      CMP      r2,#1
        0x00000246:    9a03        ..      LDR      r2,[sp,#0xc]
        0x00000248:    dc15        ..      BGT      0x276 ; __aeabi_dadd + 210
        0x0000024a:    0512        ..      LSLS     r2,r2,#20
        0x0000024c:    1ac0        ..      SUBS     r0,r0,r3
        0x0000024e:    4191        .A      SBCS     r1,r1,r2
        0x00000250:    2601        .&      MOVS     r6,#1
        0x00000252:    0536        6.      LSLS     r6,r6,#20
        0x00000254:    1c00        ..      ADDS     r0,r0,#0
        0x00000256:    4171        qA      ADCS     r1,r1,r6
        0x00000258:    0fd2        ..      LSRS     r2,r2,#31
        0x0000025a:    9e05        ..      LDR      r6,[sp,#0x14]
        0x0000025c:    07d2        ..      LSLS     r2,r2,#31
        0x0000025e:    9300        ..      STR      r3,[sp,#0]
        0x00000260:    9201        ..      STR      r2,[sp,#4]
        0x00000262:    9602        ..      STR      r6,[sp,#8]
        0x00000264:    462a        *F      MOV      r2,r5
        0x00000266:    4623        #F      MOV      r3,r4
        0x00000268:    f000f9ff    ....    BL       _double_epilogue ; 0x66a
        0x0000026c:    b007        ..      ADD      sp,sp,#0x1c
        0x0000026e:    bdf0        ..      POP      {r4-r7,pc}
        0x00000270:    4638        8F      MOV      r0,r7
        0x00000272:    4631        1F      MOV      r1,r6
        0x00000274:    e7fa        ..      B        0x26c ; __aeabi_dadd + 200
        0x00000276:    0516        ..      LSLS     r6,r2,#20
        0x00000278:    4a22        "J      LDR      r2,[pc,#136] ; [0x304] = 0xffe00000
        0x0000027a:    460f        .F      MOV      r7,r1
        0x0000027c:    18b2        ..      ADDS     r2,r6,r2
        0x0000027e:    1ac0        ..      SUBS     r0,r0,r3
        0x00000280:    41b7        .A      SBCS     r7,r7,r6
        0x00000282:    2101        .!      MOVS     r1,#1
        0x00000284:    0509        ..      LSLS     r1,r1,#20
        0x00000286:    1c00        ..      ADDS     r0,r0,#0
        0x00000288:    414f        OA      ADCS     r7,r7,r1
        0x0000028a:    1800        ..      ADDS     r0,r0,r0
        0x0000028c:    417f        .A      ADCS     r7,r7,r7
        0x0000028e:    4611        .F      MOV      r1,r2
        0x00000290:    1818        ..      ADDS     r0,r3,r0
        0x00000292:    4179        yA      ADCS     r1,r1,r7
        0x00000294:    0fe2        ..      LSRS     r2,r4,#31
        0x00000296:    4310        .C      ORRS     r0,r0,r2
        0x00000298:    196d        m.      ADDS     r5,r5,r5
        0x0000029a:    4164        dA      ADCS     r4,r4,r4
        0x0000029c:    e013        ..      B        0x2c6 ; __aeabi_dadd + 290
        0x0000029e:    07e2        ..      LSLS     r2,r4,#31
        0x000002a0:    086d        m.      LSRS     r5,r5,#1
        0x000002a2:    4315        .C      ORRS     r5,r5,r2
        0x000002a4:    0864        d.      LSRS     r4,r4,#1
        0x000002a6:    07c2        ..      LSLS     r2,r0,#31
        0x000002a8:    4314        .C      ORRS     r4,r4,r2
        0x000002aa:    9a03        ..      LDR      r2,[sp,#0xc]
        0x000002ac:    2601        .&      MOVS     r6,#1
        0x000002ae:    0512        ..      LSLS     r2,r2,#20
        0x000002b0:    1ac0        ..      SUBS     r0,r0,r3
        0x000002b2:    4191        .A      SBCS     r1,r1,r2
        0x000002b4:    0536        6.      LSLS     r6,r6,#20
        0x000002b6:    1c00        ..      ADDS     r0,r0,#0
        0x000002b8:    4171        qA      ADCS     r1,r1,r6
        0x000002ba:    07ce        ..      LSLS     r6,r1,#31
        0x000002bc:    0840        @.      LSRS     r0,r0,#1
        0x000002be:    4330        0C      ORRS     r0,r0,r6
        0x000002c0:    0849        I.      LSRS     r1,r1,#1
        0x000002c2:    18c0        ..      ADDS     r0,r0,r3
        0x000002c4:    4151        QA      ADCS     r1,r1,r2
        0x000002c6:    462a        *F      MOV      r2,r5
        0x000002c8:    4623        #F      MOV      r3,r4
        0x000002ca:    f000f9c1    ....    BL       _double_round ; 0x650
        0x000002ce:    e7cd        ..      B        0x26c ; __aeabi_dadd + 200
        0x000002d0:    e7ff        ..      B        0x2d2 ; __aeabi_dadd + 302
        0x000002d2:    9804        ..      LDR      r0,[sp,#0x10]
        0x000002d4:    2201        ."      MOVS     r2,#1
        0x000002d6:    0040        @.      LSLS     r0,r0,#1
        0x000002d8:    17c1        ..      ASRS     r1,r0,#31
        0x000002da:    1a12        ..      SUBS     r2,r2,r0
        0x000002dc:    2300        .#      MOVS     r3,#0
        0x000002de:    418b        .A      SBCS     r3,r3,r1
        0x000002e0:    9804        ..      LDR      r0,[sp,#0x10]
        0x000002e2:    4631        1F      MOV      r1,r6
        0x000002e4:    17c4        ..      ASRS     r4,r0,#31
        0x000002e6:    1a38        8.      SUBS     r0,r7,r0
        0x000002e8:    41a1        .A      SBCS     r1,r1,r4
        0x000002ea:    e7ee        ..      B        0x2ca ; __aeabi_dadd + 294
    __aeabi_dsub
        0x000002ec:    b430        0.      PUSH     {r4,r5}
        0x000002ee:    2401        .$      MOVS     r4,#1
        0x000002f0:    07e4        ..      LSLS     r4,r4,#31
        0x000002f2:    4063        c@      EORS     r3,r3,r4
        0x000002f4:    bc30        0.      POP      {r4,r5}
        0x000002f6:    e755        U.      B        __aeabi_dadd ; 0x1a4
    __aeabi_drsub
        0x000002f8:    b430        0.      PUSH     {r4,r5}
        0x000002fa:    2401        .$      MOVS     r4,#1
        0x000002fc:    07e4        ..      LSLS     r4,r4,#31
        0x000002fe:    4061        a@      EORS     r1,r1,r4
        0x00000300:    bc30        0.      POP      {r4,r5}
        0x00000302:    e74f        O.      B        __aeabi_dadd ; 0x1a4
    $d
        0x00000304:    ffe00000    ....    DCD    4292870144
    $t
    .text
    __aeabi_dmul
        0x00000308:    b5f0        ..      PUSH     {r4-r7,lr}
        0x0000030a:    b41f        ..      PUSH     {r0-r4}
        0x0000030c:    b088        ..      SUB      sp,sp,#0x20
        0x0000030e:    990b        ..      LDR      r1,[sp,#0x2c]
        0x00000310:    9809        ..      LDR      r0,[sp,#0x24]
        0x00000312:    2400        .$      MOVS     r4,#0
        0x00000314:    4048        H@      EORS     r0,r0,r1
        0x00000316:    9909        ..      LDR      r1,[sp,#0x24]
        0x00000318:    0fc0        ..      LSRS     r0,r0,#31
        0x0000031a:    0049        I.      LSLS     r1,r1,#1
        0x0000031c:    0849        I.      LSRS     r1,r1,#1
        0x0000031e:    9109        ..      STR      r1,[sp,#0x24]
        0x00000320:    07c0        ..      LSLS     r0,r0,#31
        0x00000322:    990b        ..      LDR      r1,[sp,#0x2c]
        0x00000324:    9000        ..      STR      r0,[sp,#0]
        0x00000326:    0049        I.      LSLS     r1,r1,#1
        0x00000328:    0849        I.      LSRS     r1,r1,#1
        0x0000032a:    910b        ..      STR      r1,[sp,#0x2c]
        0x0000032c:    9909        ..      LDR      r1,[sp,#0x24]
        0x0000032e:    9808        ..      LDR      r0,[sp,#0x20]
        0x00000330:    46a6        .F      MOV      lr,r4
        0x00000332:    4308        .C      ORRS     r0,r0,r1
        0x00000334:    d01c        ..      BEQ      0x370 ; __aeabi_dmul + 104
        0x00000336:    990b        ..      LDR      r1,[sp,#0x2c]
        0x00000338:    980a        ..      LDR      r0,[sp,#0x28]
        0x0000033a:    4308        .C      ORRS     r0,r0,r1
        0x0000033c:    d018        ..      BEQ      0x370 ; __aeabi_dmul + 104
        0x0000033e:    9809        ..      LDR      r0,[sp,#0x24]
        0x00000340:    2401        .$      MOVS     r4,#1
        0x00000342:    0040        @.      LSLS     r0,r0,#1
        0x00000344:    0d42        B.      LSRS     r2,r0,#21
        0x00000346:    0048        H.      LSLS     r0,r1,#1
        0x00000348:    0d41        A.      LSRS     r1,r0,#21
        0x0000034a:    9809        ..      LDR      r0,[sp,#0x24]
        0x0000034c:    0524        $.      LSLS     r4,r4,#20
        0x0000034e:    0300        ..      LSLS     r0,r0,#12
        0x00000350:    0b00        ..      LSRS     r0,r0,#12
        0x00000352:    4320         C      ORRS     r0,r0,r4
        0x00000354:    9009        ..      STR      r0,[sp,#0x24]
        0x00000356:    980b        ..      LDR      r0,[sp,#0x2c]
        0x00000358:    0300        ..      LSLS     r0,r0,#12
        0x0000035a:    0b00        ..      LSRS     r0,r0,#12
        0x0000035c:    4320         C      ORRS     r0,r0,r4
        0x0000035e:    900b        ..      STR      r0,[sp,#0x2c]
        0x00000360:    1850        P.      ADDS     r0,r2,r1
        0x00000362:    491c        .I      LDR      r1,[pc,#112] ; [0x3d4] = 0xfffffc0d
        0x00000364:    1840        @.      ADDS     r0,r0,r1
        0x00000366:    2200        ."      MOVS     r2,#0
        0x00000368:    9001        ..      STR      r0,[sp,#4]
        0x0000036a:    4614        .F      MOV      r4,r2
        0x0000036c:    4610        .F      MOV      r0,r2
        0x0000036e:    e005        ..      B        0x37c ; __aeabi_dmul + 116
        0x00000370:    2000        .       MOVS     r0,#0
        0x00000372:    4601        .F      MOV      r1,r0
        0x00000374:    b00d        ..      ADD      sp,sp,#0x34
        0x00000376:    bdf0        ..      POP      {r4-r7,pc}
        0x00000378:    2803        .(      CMP      r0,#3
        0x0000037a:    da01        ..      BGE      0x380 ; __aeabi_dmul + 120
        0x0000037c:    4603        .F      MOV      r3,r0
        0x0000037e:    e000        ..      B        0x382 ; __aeabi_dmul + 122
        0x00000380:    2303        .#      MOVS     r3,#3
        0x00000382:    469c        .F      MOV      r12,r3
        0x00000384:    1ac1        ..      SUBS     r1,r0,r3
        0x00000386:    ae0a        ..      ADD      r6,sp,#0x28
        0x00000388:    e00a        ..      B        0x3a0 ; __aeabi_dmul + 152
        0x0000038a:    005f        _.      LSLS     r7,r3,#1
        0x0000038c:    ad08        ..      ADD      r5,sp,#0x20
        0x0000038e:    5bed        .[      LDRH     r5,[r5,r7]
        0x00000390:    004f        O.      LSLS     r7,r1,#1
        0x00000392:    5bf7        .[      LDRH     r7,[r6,r7]
        0x00000394:    437d        }C      MULS     r5,r7,r5
        0x00000396:    2700        .'      MOVS     r7,#0
        0x00000398:    18aa        ..      ADDS     r2,r5,r2
        0x0000039a:    417c        |A      ADCS     r4,r4,r7
        0x0000039c:    1c49        I.      ADDS     r1,r1,#1
        0x0000039e:    1e5b        [.      SUBS     r3,r3,#1
        0x000003a0:    4561        aE      CMP      r1,r12
        0x000003a2:    ddf2        ..      BLE      0x38a ; __aeabi_dmul + 130
        0x000003a4:    0041        A.      LSLS     r1,r0,#1
        0x000003a6:    ab04        ..      ADD      r3,sp,#0x10
        0x000003a8:    525a        ZR      STRH     r2,[r3,r1]
        0x000003aa:    0421        !.      LSLS     r1,r4,#16
        0x000003ac:    0c12        ..      LSRS     r2,r2,#16
        0x000003ae:    430a        .C      ORRS     r2,r2,r1
        0x000003b0:    0c24        $.      LSRS     r4,r4,#16
        0x000003b2:    1c40        @.      ADDS     r0,r0,#1
        0x000003b4:    2808        .(      CMP      r0,#8
        0x000003b6:    dbdf        ..      BLT      0x378 ; __aeabi_dmul + 112
        0x000003b8:    9801        ..      LDR      r0,[sp,#4]
        0x000003ba:    9002        ..      STR      r0,[sp,#8]
        0x000003bc:    9900        ..      LDR      r1,[sp,#0]
        0x000003be:    4670        pF      MOV      r0,lr
        0x000003c0:    9101        ..      STR      r1,[sp,#4]
        0x000003c2:    9000        ..      STR      r0,[sp,#0]
        0x000003c4:    9b05        ..      LDR      r3,[sp,#0x14]
        0x000003c6:    9a04        ..      LDR      r2,[sp,#0x10]
        0x000003c8:    9907        ..      LDR      r1,[sp,#0x1c]
        0x000003ca:    9806        ..      LDR      r0,[sp,#0x18]
        0x000003cc:    f000f94d    ..M.    BL       _double_epilogue ; 0x66a
        0x000003d0:    e7d0        ..      B        0x374 ; __aeabi_dmul + 108
    $d
        0x000003d2:    0000        ..      DCW    0
        0x000003d4:    fffffc0d    ....    DCD    4294966285
    $t
    .text
    __aeabi_ddiv
        0x000003d8:    b5f0        ..      PUSH     {r4-r7,lr}
        0x000003da:    460c        .F      MOV      r4,r1
        0x000003dc:    405c        \@      EORS     r4,r4,r3
        0x000003de:    b085        ..      SUB      sp,sp,#0x14
        0x000003e0:    0fe4        ..      LSRS     r4,r4,#31
        0x000003e2:    07e4        ..      LSLS     r4,r4,#31
        0x000003e4:    9403        ..      STR      r4,[sp,#0xc]
        0x000003e6:    004c        L.      LSLS     r4,r1,#1
        0x000003e8:    2600        .&      MOVS     r6,#0
        0x000003ea:    0864        d.      LSRS     r4,r4,#1
        0x000003ec:    0059        Y.      LSLS     r1,r3,#1
        0x000003ee:    4694        .F      MOV      r12,r2
        0x000003f0:    0849        I.      LSRS     r1,r1,#1
        0x000003f2:    4602        .F      MOV      r2,r0
        0x000003f4:    9602        ..      STR      r6,[sp,#8]
        0x000003f6:    4322        "C      ORRS     r2,r2,r4
        0x000003f8:    d021        !.      BEQ      0x43e ; __aeabi_ddiv + 102
        0x000003fa:    4662        bF      MOV      r2,r12
        0x000003fc:    430a        .C      ORRS     r2,r2,r1
        0x000003fe:    d01e        ..      BEQ      0x43e ; __aeabi_ddiv + 102
        0x00000400:    0062        b.      LSLS     r2,r4,#1
        0x00000402:    0d57        W.      LSRS     r7,r2,#21
        0x00000404:    004a        J.      LSLS     r2,r1,#1
        0x00000406:    030e        ..      LSLS     r6,r1,#12
        0x00000408:    0323        #.      LSLS     r3,r4,#12
        0x0000040a:    0d55        U.      LSRS     r5,r2,#21
        0x0000040c:    2401        .$      MOVS     r4,#1
        0x0000040e:    4602        .F      MOV      r2,r0
        0x00000410:    492c        ,I      LDR      r1,[pc,#176] ; [0x4c4] = 0x3fd
        0x00000412:    0524        $.      LSLS     r4,r4,#20
        0x00000414:    1b78        x.      SUBS     r0,r7,r5
        0x00000416:    0b1b        ..      LSRS     r3,r3,#12
        0x00000418:    0b36        6.      LSRS     r6,r6,#12
        0x0000041a:    1840        @.      ADDS     r0,r0,r1
        0x0000041c:    4323        #C      ORRS     r3,r3,r4
        0x0000041e:    4326        &C      ORRS     r6,r6,r4
        0x00000420:    4661        aF      MOV      r1,r12
        0x00000422:    9000        ..      STR      r0,[sp,#0]
        0x00000424:    461c        .F      MOV      r4,r3
        0x00000426:    1a50        P.      SUBS     r0,r2,r1
        0x00000428:    41b4        .A      SBCS     r4,r4,r6
        0x0000042a:    d303        ..      BCC      0x434 ; __aeabi_ddiv + 92
        0x0000042c:    9800        ..      LDR      r0,[sp,#0]
        0x0000042e:    1c40        @.      ADDS     r0,r0,#1
        0x00000430:    9000        ..      STR      r0,[sp,#0]
        0x00000432:    e002        ..      B        0x43a ; __aeabi_ddiv + 98
        0x00000434:    1892        ..      ADDS     r2,r2,r2
        0x00000436:    9800        ..      LDR      r0,[sp,#0]
        0x00000438:    415b        [A      ADCS     r3,r3,r3
        0x0000043a:    2800        .(      CMP      r0,#0
        0x0000043c:    da03        ..      BGE      0x446 ; __aeabi_ddiv + 110
        0x0000043e:    2000        .       MOVS     r0,#0
        0x00000440:    4601        .F      MOV      r1,r0
        0x00000442:    b005        ..      ADD      sp,sp,#0x14
        0x00000444:    bdf0        ..      POP      {r4-r7,pc}
        0x00000446:    2000        .       MOVS     r0,#0
        0x00000448:    2101        .!      MOVS     r1,#1
        0x0000044a:    0509        ..      LSLS     r1,r1,#20
        0x0000044c:    4607        .F      MOV      r7,r0
        0x0000044e:    4686        .F      MOV      lr,r0
        0x00000450:    e011        ..      B        0x476 ; __aeabi_ddiv + 158
        0x00000452:    4664        dF      MOV      r4,r12
        0x00000454:    461d        .F      MOV      r5,r3
        0x00000456:    1b14        ..      SUBS     r4,r2,r4
        0x00000458:    41b5        .A      SBCS     r5,r5,r6
        0x0000045a:    d306        ..      BCC      0x46a ; __aeabi_ddiv + 146
        0x0000045c:    4665        eF      MOV      r5,r12
        0x0000045e:    1b52        R.      SUBS     r2,r2,r5
        0x00000460:    41b3        .A      SBCS     r3,r3,r6
        0x00000462:    4674        tF      MOV      r4,lr
        0x00000464:    4307        .C      ORRS     r7,r7,r0
        0x00000466:    430c        .C      ORRS     r4,r4,r1
        0x00000468:    46a6        .F      MOV      lr,r4
        0x0000046a:    07cd        ..      LSLS     r5,r1,#31
        0x0000046c:    0840        @.      LSRS     r0,r0,#1
        0x0000046e:    0849        I.      LSRS     r1,r1,#1
        0x00000470:    4328        (C      ORRS     r0,r0,r5
        0x00000472:    1892        ..      ADDS     r2,r2,r2
        0x00000474:    415b        [A      ADCS     r3,r3,r3
        0x00000476:    4605        .F      MOV      r5,r0
        0x00000478:    430d        .C      ORRS     r5,r5,r1
        0x0000047a:    d1ea        ..      BNE      0x452 ; __aeabi_ddiv + 122
        0x0000047c:    4610        .F      MOV      r0,r2
        0x0000047e:    4318        .C      ORRS     r0,r0,r3
        0x00000480:    d013        ..      BEQ      0x4aa ; __aeabi_ddiv + 210
        0x00000482:    4660        `F      MOV      r0,r12
        0x00000484:    4619        .F      MOV      r1,r3
        0x00000486:    4050        P@      EORS     r0,r0,r2
        0x00000488:    4071        q@      EORS     r1,r1,r6
        0x0000048a:    4308        .C      ORRS     r0,r0,r1
        0x0000048c:    d006        ..      BEQ      0x49c ; __aeabi_ddiv + 196
        0x0000048e:    4660        `F      MOV      r0,r12
        0x00000490:    1a10        ..      SUBS     r0,r2,r0
        0x00000492:    41b3        .A      SBCS     r3,r3,r6
        0x00000494:    d206        ..      BCS      0x4a4 ; __aeabi_ddiv + 204
        0x00000496:    2201        ."      MOVS     r2,#1
        0x00000498:    2300        .#      MOVS     r3,#0
        0x0000049a:    e006        ..      B        0x4aa ; __aeabi_ddiv + 210
        0x0000049c:    2200        ."      MOVS     r2,#0
        0x0000049e:    2301        .#      MOVS     r3,#1
        0x000004a0:    07db        ..      LSLS     r3,r3,#31
        0x000004a2:    e002        ..      B        0x4aa ; __aeabi_ddiv + 210
        0x000004a4:    2201        ."      MOVS     r2,#1
        0x000004a6:    43d2        .C      MVNS     r2,r2
        0x000004a8:    1053        S.      ASRS     r3,r2,#1
        0x000004aa:    9800        ..      LDR      r0,[sp,#0]
        0x000004ac:    4674        tF      MOV      r4,lr
        0x000004ae:    0501        ..      LSLS     r1,r0,#20
        0x000004b0:    1c38        8.      ADDS     r0,r7,#0
        0x000004b2:    4161        aA      ADCS     r1,r1,r4
        0x000004b4:    9c02        ..      LDR      r4,[sp,#8]
        0x000004b6:    9d03        ..      LDR      r5,[sp,#0xc]
        0x000004b8:    1900        ..      ADDS     r0,r0,r4
        0x000004ba:    4169        iA      ADCS     r1,r1,r5
        0x000004bc:    f000f8c8    ....    BL       _double_round ; 0x650
        0x000004c0:    e7bf        ..      B        0x442 ; __aeabi_ddiv + 106
    $d
        0x000004c2:    0000        ..      DCW    0
        0x000004c4:    000003fd    ....    DCD    1021
    $t
    .text
    __aeabi_i2d
        0x000004c8:    b50e        ..      PUSH     {r1-r3,lr}
        0x000004ca:    17c2        ..      ASRS     r2,r0,#31
        0x000004cc:    0fc1        ..      LSRS     r1,r0,#31
        0x000004ce:    4050        P@      EORS     r0,r0,r2
        0x000004d0:    07ca        ..      LSLS     r2,r1,#31
        0x000004d2:    1840        @.      ADDS     r0,r0,r1
        0x000004d4:    2100        .!      MOVS     r1,#0
        0x000004d6:    4b05        .K      LDR      r3,[pc,#20] ; [0x4ec] = 0x433
        0x000004d8:    9302        ..      STR      r3,[sp,#8]
        0x000004da:    9201        ..      STR      r2,[sp,#4]
        0x000004dc:    9100        ..      STR      r1,[sp,#0]
        0x000004de:    460a        .F      MOV      r2,r1
        0x000004e0:    460b        .F      MOV      r3,r1
        0x000004e2:    f000f8c2    ....    BL       _double_epilogue ; 0x66a
        0x000004e6:    b003        ..      ADD      sp,sp,#0xc
        0x000004e8:    bd00        ..      POP      {pc}
    $d
        0x000004ea:    0000        ..      DCW    0
        0x000004ec:    00000433    3...    DCD    1075
    $t
    .text
    __aeabi_d2f
        0x000004f0:    0fcb        ..      LSRS     r3,r1,#31
        0x000004f2:    07db        ..      LSLS     r3,r3,#31
        0x000004f4:    0049        I.      LSLS     r1,r1,#1
        0x000004f6:    b510        ..      PUSH     {r4,lr}
        0x000004f8:    0849        I.      LSRS     r1,r1,#1
        0x000004fa:    4602        .F      MOV      r2,r0
        0x000004fc:    430a        .C      ORRS     r2,r2,r1
        0x000004fe:    d007        ..      BEQ      0x510 ; __aeabi_d2f + 32
        0x00000500:    0d0a        ..      LSRS     r2,r1,#20
        0x00000502:    2407        .$      MOVS     r4,#7
        0x00000504:    0309        ..      LSLS     r1,r1,#12
        0x00000506:    01e4        ..      LSLS     r4,r4,#7
        0x00000508:    0b09        ..      LSRS     r1,r1,#12
        0x0000050a:    1b12        ..      SUBS     r2,r2,r4
        0x0000050c:    2a00        .*      CMP      r2,#0
        0x0000050e:    dc01        ..      BGT      0x514 ; __aeabi_d2f + 36
        0x00000510:    2000        .       MOVS     r0,#0
        0x00000512:    bd10        ..      POP      {r4,pc}
        0x00000514:    00c9        ..      LSLS     r1,r1,#3
        0x00000516:    0f44        D.      LSRS     r4,r0,#29
        0x00000518:    430c        .C      ORRS     r4,r4,r1
        0x0000051a:    00c1        ..      LSLS     r1,r0,#3
        0x0000051c:    18e0        ..      ADDS     r0,r4,r3
        0x0000051e:    05d2        ..      LSLS     r2,r2,#23
        0x00000520:    1880        ..      ADDS     r0,r0,r2
        0x00000522:    f000f854    ..T.    BL       __I$use$fp ; 0x5ce
        0x00000526:    bd10        ..      POP      {r4,pc}
    .text
    __aeabi_uldivmod
        0x00000528:    b5f0        ..      PUSH     {r4-r7,lr}
        0x0000052a:    b41f        ..      PUSH     {r0-r4}
        0x0000052c:    4606        .F      MOV      r6,r0
        0x0000052e:    2000        .       MOVS     r0,#0
        0x00000530:    b082        ..      SUB      sp,sp,#8
        0x00000532:    4605        .F      MOV      r5,r0
        0x00000534:    2440        @$      MOVS     r4,#0x40
        0x00000536:    9101        ..      STR      r1,[sp,#4]
        0x00000538:    9000        ..      STR      r0,[sp,#0]
        0x0000053a:    e01b        ..      B        0x574 ; __aeabi_uldivmod + 76
        0x0000053c:    9901        ..      LDR      r1,[sp,#4]
        0x0000053e:    4622        "F      MOV      r2,r4
        0x00000540:    460f        .F      MOV      r7,r1
        0x00000542:    4630        0F      MOV      r0,r6
        0x00000544:    f000f970    ..p.    BL       __aeabi_llsr ; 0x828
        0x00000548:    9a04        ..      LDR      r2,[sp,#0x10]
        0x0000054a:    9b05        ..      LDR      r3,[sp,#0x14]
        0x0000054c:    1a80        ..      SUBS     r0,r0,r2
        0x0000054e:    4199        .A      SBCS     r1,r1,r3
        0x00000550:    d310        ..      BCC      0x574 ; __aeabi_uldivmod + 76
        0x00000552:    4610        .F      MOV      r0,r2
        0x00000554:    4619        .F      MOV      r1,r3
        0x00000556:    4622        "F      MOV      r2,r4
        0x00000558:    f000f816    ....    BL       __aeabi_llsl ; 0x588
        0x0000055c:    1a36        6.      SUBS     r6,r6,r0
        0x0000055e:    418f        .A      SBCS     r7,r7,r1
        0x00000560:    9701        ..      STR      r7,[sp,#4]
        0x00000562:    4622        "F      MOV      r2,r4
        0x00000564:    2001        .       MOVS     r0,#1
        0x00000566:    2100        .!      MOVS     r1,#0
        0x00000568:    9f00        ..      LDR      r7,[sp,#0]
        0x0000056a:    f000f80d    ....    BL       __aeabi_llsl ; 0x588
        0x0000056e:    1838        8.      ADDS     r0,r7,r0
        0x00000570:    414d        MA      ADCS     r5,r5,r1
        0x00000572:    9000        ..      STR      r0,[sp,#0]
        0x00000574:    4620         F      MOV      r0,r4
        0x00000576:    1e64        d.      SUBS     r4,r4,#1
        0x00000578:    2800        .(      CMP      r0,#0
        0x0000057a:    dcdf        ..      BGT      0x53c ; __aeabi_uldivmod + 20
        0x0000057c:    9b01        ..      LDR      r3,[sp,#4]
        0x0000057e:    9800        ..      LDR      r0,[sp,#0]
        0x00000580:    4629        )F      MOV      r1,r5
        0x00000582:    4632        2F      MOV      r2,r6
        0x00000584:    b007        ..      ADD      sp,sp,#0x1c
        0x00000586:    bdf0        ..      POP      {r4-r7,pc}
    .text
    __aeabi_llsl
    _ll_shift_l
        0x00000588:    b510        ..      PUSH     {r4,lr}
        0x0000058a:    2a20         *      CMP      r2,#0x20
        0x0000058c:    db04        ..      BLT      0x598 ; __aeabi_llsl + 16
        0x0000058e:    4601        .F      MOV      r1,r0
        0x00000590:    3a20         :      SUBS     r2,r2,#0x20
        0x00000592:    4091        .@      LSLS     r1,r1,r2
        0x00000594:    2000        .       MOVS     r0,#0
        0x00000596:    bd10        ..      POP      {r4,pc}
        0x00000598:    4091        .@      LSLS     r1,r1,r2
        0x0000059a:    2320         #      MOVS     r3,#0x20
        0x0000059c:    1a9c        ..      SUBS     r4,r3,r2
        0x0000059e:    4603        .F      MOV      r3,r0
        0x000005a0:    40e3        .@      LSRS     r3,r3,r4
        0x000005a2:    4319        .C      ORRS     r1,r1,r3
        0x000005a4:    4090        .@      LSLS     r0,r0,r2
        0x000005a6:    bd10        ..      POP      {r4,pc}
    .text
    __aeabi_lasr
    _ll_sshift_r
        0x000005a8:    b510        ..      PUSH     {r4,lr}
        0x000005aa:    2a20         *      CMP      r2,#0x20
        0x000005ac:    db06        ..      BLT      0x5bc ; __aeabi_lasr + 20
        0x000005ae:    17cb        ..      ASRS     r3,r1,#31
        0x000005b0:    4608        .F      MOV      r0,r1
        0x000005b2:    3a20         :      SUBS     r2,r2,#0x20
        0x000005b4:    4110        .A      ASRS     r0,r0,r2
        0x000005b6:    17c1        ..      ASRS     r1,r0,#31
        0x000005b8:    430b        .C      ORRS     r3,r3,r1
        0x000005ba:    e006        ..      B        0x5ca ; __aeabi_lasr + 34
        0x000005bc:    460b        .F      MOV      r3,r1
        0x000005be:    4113        .A      ASRS     r3,r3,r2
        0x000005c0:    40d0        .@      LSRS     r0,r0,r2
        0x000005c2:    2420         $      MOVS     r4,#0x20
        0x000005c4:    1aa2        ..      SUBS     r2,r4,r2
        0x000005c6:    4091        .@      LSLS     r1,r1,r2
        0x000005c8:    4308        .C      ORRS     r0,r0,r1
        0x000005ca:    4619        .F      MOV      r1,r3
        0x000005cc:    bd10        ..      POP      {r4,pc}
    .text
    .text
    __I$use$fp
    _float_round
        0x000005ce:    2900        .)      CMP      r1,#0
        0x000005d0:    da04        ..      BGE      0x5dc ; __I$use$fp + 14
        0x000005d2:    1c40        @.      ADDS     r0,r0,#1
        0x000005d4:    0049        I.      LSLS     r1,r1,#1
        0x000005d6:    d101        ..      BNE      0x5dc ; __I$use$fp + 14
        0x000005d8:    0840        @.      LSRS     r0,r0,#1
        0x000005da:    0040        @.      LSLS     r0,r0,#1
        0x000005dc:    4770        pG      BX       lr
    _float_epilogue
        0x000005de:    b470        p.      PUSH     {r4-r6}
        0x000005e0:    2400        .$      MOVS     r4,#0
        0x000005e2:    0c05        ..      LSRS     r5,r0,#16
        0x000005e4:    d105        ..      BNE      0x5f2 ; _float_epilogue + 20
        0x000005e6:    2410        .$      MOVS     r4,#0x10
        0x000005e8:    0400        ..      LSLS     r0,r0,#16
        0x000005ea:    d102        ..      BNE      0x5f2 ; _float_epilogue + 20
        0x000005ec:    2900        .)      CMP      r1,#0
        0x000005ee:    d021        !.      BEQ      0x634 ; _float_epilogue + 86
        0x000005f0:    2411        .$      MOVS     r4,#0x11
        0x000005f2:    0e05        ..      LSRS     r5,r0,#24
        0x000005f4:    d101        ..      BNE      0x5fa ; _float_epilogue + 28
        0x000005f6:    0200        ..      LSLS     r0,r0,#8
        0x000005f8:    3408        .4      ADDS     r4,r4,#8
        0x000005fa:    0f05        ..      LSRS     r5,r0,#28
        0x000005fc:    d101        ..      BNE      0x602 ; _float_epilogue + 36
        0x000005fe:    0100        ..      LSLS     r0,r0,#4
        0x00000600:    1d24        $.      ADDS     r4,r4,#4
        0x00000602:    0f85        ..      LSRS     r5,r0,#30
        0x00000604:    d101        ..      BNE      0x60a ; _float_epilogue + 44
        0x00000606:    0080        ..      LSLS     r0,r0,#2
        0x00000608:    1ca4        ..      ADDS     r4,r4,#2
        0x0000060a:    2800        .(      CMP      r0,#0
        0x0000060c:    db01        ..      BLT      0x612 ; _float_epilogue + 52
        0x0000060e:    0040        @.      LSLS     r0,r0,#1
        0x00000610:    1c64        d.      ADDS     r4,r4,#1
        0x00000612:    2900        .)      CMP      r1,#0
        0x00000614:    d008        ..      BEQ      0x628 ; _float_epilogue + 74
        0x00000616:    2520         %      MOVS     r5,#0x20
        0x00000618:    1b2e        ..      SUBS     r6,r5,r4
        0x0000061a:    460d        .F      MOV      r5,r1
        0x0000061c:    40f5        .@      LSRS     r5,r5,r6
        0x0000061e:    40a1        .@      LSLS     r1,r1,r4
        0x00000620:    d000        ..      BEQ      0x624 ; _float_epilogue + 70
        0x00000622:    2101        .!      MOVS     r1,#1
        0x00000624:    4329        )C      ORRS     r1,r1,r5
        0x00000626:    4308        .C      ORRS     r0,r0,r1
        0x00000628:    0601        ..      LSLS     r1,r0,#24
        0x0000062a:    1b1b        ..      SUBS     r3,r3,r4
        0x0000062c:    0a00        ..      LSRS     r0,r0,#8
        0x0000062e:    1ddb        ..      ADDS     r3,r3,#7
        0x00000630:    d502        ..      BPL      0x638 ; _float_epilogue + 90
        0x00000632:    2000        .       MOVS     r0,#0
        0x00000634:    bc70        p.      POP      {r4-r6}
        0x00000636:    4770        pG      BX       lr
        0x00000638:    05db        ..      LSLS     r3,r3,#23
        0x0000063a:    1818        ..      ADDS     r0,r3,r0
        0x0000063c:    1880        ..      ADDS     r0,r0,r2
        0x0000063e:    2900        .)      CMP      r1,#0
        0x00000640:    daf8        ..      BGE      0x634 ; _float_epilogue + 86
        0x00000642:    1c40        @.      ADDS     r0,r0,#1
        0x00000644:    0049        I.      LSLS     r1,r1,#1
        0x00000646:    d1f5        ..      BNE      0x634 ; _float_epilogue + 86
        0x00000648:    bc70        p.      POP      {r4-r6}
        0x0000064a:    0840        @.      LSRS     r0,r0,#1
        0x0000064c:    0040        @.      LSLS     r0,r0,#1
        0x0000064e:    4770        pG      BX       lr
    .text
    _double_round
        0x00000650:    b510        ..      PUSH     {r4,lr}
        0x00000652:    2b00        .+      CMP      r3,#0
        0x00000654:    da08        ..      BGE      0x668 ; _double_round + 24
        0x00000656:    2400        .$      MOVS     r4,#0
        0x00000658:    1c40        @.      ADDS     r0,r0,#1
        0x0000065a:    4161        aA      ADCS     r1,r1,r4
        0x0000065c:    1892        ..      ADDS     r2,r2,r2
        0x0000065e:    415b        [A      ADCS     r3,r3,r3
        0x00000660:    431a        .C      ORRS     r2,r2,r3
        0x00000662:    d101        ..      BNE      0x668 ; _double_round + 24
        0x00000664:    0840        @.      LSRS     r0,r0,#1
        0x00000666:    0040        @.      LSLS     r0,r0,#1
        0x00000668:    bd10        ..      POP      {r4,pc}
    _double_epilogue
        0x0000066a:    b5f0        ..      PUSH     {r4-r7,lr}
        0x0000066c:    b41f        ..      PUSH     {r0-r4}
        0x0000066e:    b082        ..      SUB      sp,sp,#8
        0x00000670:    4605        .F      MOV      r5,r0
        0x00000672:    000c        ..      MOVS     r4,r1
        0x00000674:    d003        ..      BEQ      0x67e ; _double_epilogue + 20
        0x00000676:    4608        .F      MOV      r0,r1
        0x00000678:    f000ff44    ..D.    BL       __ARM_clz ; 0x1504
        0x0000067c:    e002        ..      B        0x684 ; _double_epilogue + 26
        0x0000067e:    f000ff41    ..A.    BL       __ARM_clz ; 0x1504
        0x00000682:    3020         0      ADDS     r0,r0,#0x20
        0x00000684:    4602        .F      MOV      r2,r0
        0x00000686:    9000        ..      STR      r0,[sp,#0]
        0x00000688:    4621        !F      MOV      r1,r4
        0x0000068a:    4628        (F      MOV      r0,r5
        0x0000068c:    f7ffff7c    ..|.    BL       __aeabi_llsl ; 0x588
        0x00000690:    9b04        ..      LDR      r3,[sp,#0x10]
        0x00000692:    9a05        ..      LDR      r2,[sp,#0x14]
        0x00000694:    4604        .F      MOV      r4,r0
        0x00000696:    460f        .F      MOV      r7,r1
        0x00000698:    4318        .C      ORRS     r0,r0,r3
        0x0000069a:    4311        .C      ORRS     r1,r1,r2
        0x0000069c:    4308        .C      ORRS     r0,r0,r1
        0x0000069e:    d014        ..      BEQ      0x6ca ; _double_epilogue + 96
        0x000006a0:    4618        .F      MOV      r0,r3
        0x000006a2:    4310        .C      ORRS     r0,r0,r2
        0x000006a4:    d01b        ..      BEQ      0x6de ; _double_epilogue + 116
        0x000006a6:    9800        ..      LDR      r0,[sp,#0]
        0x000006a8:    2140        @!      MOVS     r1,#0x40
        0x000006aa:    1a0a        ..      SUBS     r2,r1,r0
        0x000006ac:    4618        .F      MOV      r0,r3
        0x000006ae:    9905        ..      LDR      r1,[sp,#0x14]
        0x000006b0:    f000f8ba    ....    BL       __aeabi_llsr ; 0x828
        0x000006b4:    4605        .F      MOV      r5,r0
        0x000006b6:    460e        .F      MOV      r6,r1
        0x000006b8:    9a00        ..      LDR      r2,[sp,#0]
        0x000006ba:    9905        ..      LDR      r1,[sp,#0x14]
        0x000006bc:    9804        ..      LDR      r0,[sp,#0x10]
        0x000006be:    f7ffff63    ..c.    BL       __aeabi_llsl ; 0x588
        0x000006c2:    4308        .C      ORRS     r0,r0,r1
        0x000006c4:    d005        ..      BEQ      0x6d2 ; _double_epilogue + 104
        0x000006c6:    2001        .       MOVS     r0,#1
        0x000006c8:    e004        ..      B        0x6d4 ; _double_epilogue + 106
        0x000006ca:    4620         F      MOV      r0,r4
        0x000006cc:    4639        9F      MOV      r1,r7
        0x000006ce:    b007        ..      ADD      sp,sp,#0x1c
        0x000006d0:    bdf0        ..      POP      {r4-r7,pc}
        0x000006d2:    2000        .       MOVS     r0,#0
        0x000006d4:    17c1        ..      ASRS     r1,r0,#31
        0x000006d6:    4305        .C      ORRS     r5,r5,r0
        0x000006d8:    430e        .C      ORRS     r6,r6,r1
        0x000006da:    432c        ,C      ORRS     r4,r4,r5
        0x000006dc:    4337        7C      ORRS     r7,r7,r6
        0x000006de:    9900        ..      LDR      r1,[sp,#0]
        0x000006e0:    980e        ..      LDR      r0,[sp,#0x38]
        0x000006e2:    0563        c.      LSLS     r3,r4,#21
        0x000006e4:    1a40        @.      SUBS     r0,r0,r1
        0x000006e6:    0579        y.      LSLS     r1,r7,#21
        0x000006e8:    0ae4        ..      LSRS     r4,r4,#11
        0x000006ea:    2200        ."      MOVS     r2,#0
        0x000006ec:    430c        .C      ORRS     r4,r4,r1
        0x000006ee:    0afd        ..      LSRS     r5,r7,#11
        0x000006f0:    300a        .0      ADDS     r0,r0,#0xa
        0x000006f2:    d502        ..      BPL      0x6fa ; _double_epilogue + 144
        0x000006f4:    2000        .       MOVS     r0,#0
        0x000006f6:    4601        .F      MOV      r1,r0
        0x000006f8:    e7e9        ..      B        0x6ce ; _double_epilogue + 100
        0x000006fa:    0501        ..      LSLS     r1,r0,#20
        0x000006fc:    1910        ..      ADDS     r0,r2,r4
        0x000006fe:    4169        iA      ADCS     r1,r1,r5
        0x00000700:    9c0c        ..      LDR      r4,[sp,#0x30]
        0x00000702:    9d0d        ..      LDR      r5,[sp,#0x34]
        0x00000704:    1900        ..      ADDS     r0,r0,r4
        0x00000706:    4169        iA      ADCS     r1,r1,r5
        0x00000708:    f7ffffa2    ....    BL       _double_round ; 0x650
        0x0000070c:    e7df        ..      B        0x6ce ; _double_epilogue + 100
    .text
    __ARM_scalbn
    scalbn
        0x0000070e:    b570        p.      PUSH     {r4-r6,lr}
        0x00000710:    004b        K.      LSLS     r3,r1,#1
        0x00000712:    085b        [.      LSRS     r3,r3,#1
        0x00000714:    4303        .C      ORRS     r3,r3,r0
        0x00000716:    d00b        ..      BEQ      0x730 ; __ARM_scalbn + 34
        0x00000718:    004b        K.      LSLS     r3,r1,#1
        0x0000071a:    0d5c        \.      LSRS     r4,r3,#21
        0x0000071c:    2600        .&      MOVS     r6,#0
        0x0000071e:    4633        3F      MOV      r3,r6
        0x00000720:    4265        eB      RSBS     r5,r4,#0
        0x00000722:    41b3        .A      SBCS     r3,r3,r6
        0x00000724:    17d4        ..      ASRS     r4,r2,#31
        0x00000726:    1aad        ..      SUBS     r5,r5,r2
        0x00000728:    41a3        .A      SBCS     r3,r3,r4
        0x0000072a:    db02        ..      BLT      0x732 ; __ARM_scalbn + 36
        0x0000072c:    2000        .       MOVS     r0,#0
        0x0000072e:    4601        .F      MOV      r1,r0
        0x00000730:    bd70        p.      POP      {r4-r6,pc}
        0x00000732:    0512        ..      LSLS     r2,r2,#20
        0x00000734:    1830        0.      ADDS     r0,r6,r0
        0x00000736:    4151        QA      ADCS     r1,r1,r2
        0x00000738:    bd70        p.      POP      {r4-r6,pc}
    .text
    _dsqrt
        0x0000073a:    b5fe        ..      PUSH     {r1-r7,lr}
        0x0000073c:    2300        .#      MOVS     r3,#0
        0x0000073e:    461a        .F      MOV      r2,r3
        0x00000740:    1a1b        ..      SUBS     r3,r3,r0
        0x00000742:    418a        .A      SBCS     r2,r2,r1
        0x00000744:    db03        ..      BLT      0x74e ; _dsqrt + 20
        0x00000746:    2000        .       MOVS     r0,#0
        0x00000748:    4601        .F      MOV      r1,r0
        0x0000074a:    b003        ..      ADD      sp,sp,#0xc
        0x0000074c:    bdf0        ..      POP      {r4-r7,pc}
        0x0000074e:    004a        J.      LSLS     r2,r1,#1
        0x00000750:    030d        ..      LSLS     r5,r1,#12
        0x00000752:    2101        .!      MOVS     r1,#1
        0x00000754:    0b2d        -.      LSRS     r5,r5,#12
        0x00000756:    0509        ..      LSLS     r1,r1,#20
        0x00000758:    0d52        R.      LSRS     r2,r2,#21
        0x0000075a:    430d        .C      ORRS     r5,r5,r1
        0x0000075c:    07d1        ..      LSLS     r1,r2,#31
        0x0000075e:    d102        ..      BNE      0x766 ; _dsqrt + 44
        0x00000760:    1800        ..      ADDS     r0,r0,r0
        0x00000762:    416d        mA      ADCS     r5,r5,r5
        0x00000764:    1e52        R.      SUBS     r2,r2,#1
        0x00000766:    1051        Q.      ASRS     r1,r2,#1
        0x00000768:    31ff        .1      ADDS     r1,r1,#0xff
        0x0000076a:    31ff        .1      ADDS     r1,r1,#0xff
        0x0000076c:    3101        .1      ADDS     r1,#1
        0x0000076e:    2700        .'      MOVS     r7,#0
        0x00000770:    4604        .F      MOV      r4,r0
        0x00000772:    463e        >F      MOV      r6,r7
        0x00000774:    4638        8F      MOV      r0,r7
        0x00000776:    9700        ..      STR      r7,[sp,#0]
        0x00000778:    9101        ..      STR      r1,[sp,#4]
        0x0000077a:    4602        .F      MOV      r2,r0
        0x0000077c:    2101        .!      MOVS     r1,#1
        0x0000077e:    2000        .       MOVS     r0,#0
        0x00000780:    0509        ..      LSLS     r1,r1,#20
        0x00000782:    f000f851    ..Q.    BL       __aeabi_llsr ; 0x828
        0x00000786:    19c3        ..      ADDS     r3,r0,r7
        0x00000788:    4171        qA      ADCS     r1,r1,r6
        0x0000078a:    18f8        ..      ADDS     r0,r7,r3
        0x0000078c:    4632        2F      MOV      r2,r6
        0x0000078e:    4684        .F      MOV      r12,r0
        0x00000790:    468e        .F      MOV      lr,r1
        0x00000792:    414a        JA      ADCS     r2,r2,r1
        0x00000794:    4661        aF      MOV      r1,r12
        0x00000796:    4628        (F      MOV      r0,r5
        0x00000798:    1a61        a.      SUBS     r1,r4,r1
        0x0000079a:    4190        .A      SBCS     r0,r0,r2
        0x0000079c:    d304        ..      BCC      0x7a8 ; _dsqrt + 110
        0x0000079e:    4660        `F      MOV      r0,r12
        0x000007a0:    1a24        $.      SUBS     r4,r4,r0
        0x000007a2:    4195        .A      SBCS     r5,r5,r2
        0x000007a4:    4676        vF      MOV      r6,lr
        0x000007a6:    461f        .F      MOV      r7,r3
        0x000007a8:    1924        $.      ADDS     r4,r4,r4
        0x000007aa:    9800        ..      LDR      r0,[sp,#0]
        0x000007ac:    416d        mA      ADCS     r5,r5,r5
        0x000007ae:    1c40        @.      ADDS     r0,r0,#1
        0x000007b0:    9000        ..      STR      r0,[sp,#0]
        0x000007b2:    2834        4(      CMP      r0,#0x34
        0x000007b4:    dde1        ..      BLE      0x77a ; _dsqrt + 64
        0x000007b6:    19f9        ..      ADDS     r1,r7,r7
        0x000007b8:    4630        0F      MOV      r0,r6
        0x000007ba:    4170        pA      ADCS     r0,r0,r6
        0x000007bc:    1b09        ..      SUBS     r1,r1,r4
        0x000007be:    41a8        .A      SBCS     r0,r0,r5
        0x000007c0:    d203        ..      BCS      0x7ca ; _dsqrt + 144
        0x000007c2:    2200        ."      MOVS     r2,#0
        0x000007c4:    43d2        .C      MVNS     r2,r2
        0x000007c6:    4613        .F      MOV      r3,r2
        0x000007c8:    e001        ..      B        0x7ce ; _dsqrt + 148
        0x000007ca:    2200        ."      MOVS     r2,#0
        0x000007cc:    4613        .F      MOV      r3,r2
        0x000007ce:    9801        ..      LDR      r0,[sp,#4]
        0x000007d0:    0501        ..      LSLS     r1,r0,#20
        0x000007d2:    1c38        8.      ADDS     r0,r7,#0
        0x000007d4:    4171        qA      ADCS     r1,r1,r6
        0x000007d6:    f7ffff3b    ..;.    BL       _double_round ; 0x650
        0x000007da:    e7b6        ..      B        0x74a ; _dsqrt + 16
    .text
    __aeabi_cdrcmple
        0x000007dc:    b510        ..      PUSH     {r4,lr}
        0x000007de:    2900        .)      CMP      r1,#0
        0x000007e0:    db04        ..      BLT      0x7ec ; __aeabi_cdrcmple + 16
        0x000007e2:    2401        .$      MOVS     r4,#1
        0x000007e4:    07e4        ..      LSLS     r4,r4,#31
        0x000007e6:    4240        @B      RSBS     r0,r0,#0
        0x000007e8:    418c        .A      SBCS     r4,r4,r1
        0x000007ea:    4621        !F      MOV      r1,r4
        0x000007ec:    2b00        .+      CMP      r3,#0
        0x000007ee:    db04        ..      BLT      0x7fa ; __aeabi_cdrcmple + 30
        0x000007f0:    461c        .F      MOV      r4,r3
        0x000007f2:    2301        .#      MOVS     r3,#1
        0x000007f4:    07db        ..      LSLS     r3,r3,#31
        0x000007f6:    4252        RB      RSBS     r2,r2,#0
        0x000007f8:    41a3        .A      SBCS     r3,r3,r4
        0x000007fa:    4299        .B      CMP      r1,r3
        0x000007fc:    d100        ..      BNE      0x800 ; __aeabi_cdrcmple + 36
        0x000007fe:    4290        .B      CMP      r0,r2
        0x00000800:    bd10        ..      POP      {r4,pc}
    $d
        0x00000802:    0000        ..      DCW    0
    $t
    .text
    __scatterload
    __scatterload_rt2
        0x00000804:    4c06        .L      LDR      r4,[pc,#24] ; [0x820] = 0x2c10
        0x00000806:    2501        .%      MOVS     r5,#1
        0x00000808:    4e06        .N      LDR      r6,[pc,#24] ; [0x824] = 0x2c30
        0x0000080a:    e005        ..      B        0x818 ; __scatterload + 20
        0x0000080c:    68e3        .h      LDR      r3,[r4,#0xc]
        0x0000080e:    cc07        ..      LDM      r4!,{r0-r2}
        0x00000810:    432b        +C      ORRS     r3,r3,r5
        0x00000812:    3c0c        .<      SUBS     r4,r4,#0xc
        0x00000814:    4798        .G      BLX      r3
        0x00000816:    3410        .4      ADDS     r4,r4,#0x10
        0x00000818:    42b4        .B      CMP      r4,r6
        0x0000081a:    d3f7        ..      BCC      0x80c ; __scatterload + 8
        0x0000081c:    f7fffc54    ..T.    BL       __main_after_scatterload ; 0xc8
    $d
        0x00000820:    00002c10    .,..    DCD    11280
        0x00000824:    00002c30    0,..    DCD    11312
    $t
    .text
    __aeabi_llsr
    _ll_ushift_r
        0x00000828:    b510        ..      PUSH     {r4,lr}
        0x0000082a:    2a20         *      CMP      r2,#0x20
        0x0000082c:    db04        ..      BLT      0x838 ; __aeabi_llsr + 16
        0x0000082e:    4608        .F      MOV      r0,r1
        0x00000830:    3a20         :      SUBS     r2,r2,#0x20
        0x00000832:    40d0        .@      LSRS     r0,r0,r2
        0x00000834:    2100        .!      MOVS     r1,#0
        0x00000836:    bd10        ..      POP      {r4,pc}
        0x00000838:    460b        .F      MOV      r3,r1
        0x0000083a:    40d3        .@      LSRS     r3,r3,r2
        0x0000083c:    40d0        .@      LSRS     r0,r0,r2
        0x0000083e:    2420         $      MOVS     r4,#0x20
        0x00000840:    1aa2        ..      SUBS     r2,r4,r2
        0x00000842:    4091        .@      LSLS     r1,r1,r2
        0x00000844:    4308        .C      ORRS     r0,r0,r1
        0x00000846:    4619        .F      MOV      r1,r3
        0x00000848:    bd10        ..      POP      {r4,pc}
        0x0000084a:    0000        ..      MOVS     r0,r0
    i.CLK_EnableModuleClock
    CLK_EnableModuleClock
        0x0000084c:    b51f        ..      PUSH     {r0-r4,lr}
        0x0000084e:    4909        .I      LDR      r1,[pc,#36] ; [0x874] = 0x2ac8
        0x00000850:    c91e        ..      LDM      r1,{r1-r4}
        0x00000852:    9403        ..      STR      r4,[sp,#0xc]
        0x00000854:    466c        lF      MOV      r4,sp
        0x00000856:    c40e        ..      STM      r4!,{r1-r3}
        0x00000858:    0f81        ..      LSRS     r1,r0,#30
        0x0000085a:    008a        ..      LSLS     r2,r1,#2
        0x0000085c:    4669        iF      MOV      r1,sp
        0x0000085e:    588a        .X      LDR      r2,[r1,r2]
        0x00000860:    4905        .I      LDR      r1,[pc,#20] ; [0x878] = 0x50000200
        0x00000862:    1851        Q.      ADDS     r1,r2,r1
        0x00000864:    684a        Jh      LDR      r2,[r1,#4]
        0x00000866:    06c3        ..      LSLS     r3,r0,#27
        0x00000868:    0edb        ..      LSRS     r3,r3,#27
        0x0000086a:    2001        .       MOVS     r0,#1
        0x0000086c:    4098        .@      LSLS     r0,r0,r3
        0x0000086e:    4302        .C      ORRS     r2,r2,r0
        0x00000870:    604a        J`      STR      r2,[r1,#4]
        0x00000872:    bd1f        ..      POP      {r0-r4,pc}
    $d
        0x00000874:    00002ac8    .*..    DCD    10952
        0x00000878:    50000200    ...P    DCD    1342177792
    $t
    i.CLK_EnablePLL
    CLK_EnablePLL
        0x0000087c:    b5f0        ..      PUSH     {r4-r7,lr}
        0x0000087e:    0007        ..      MOVS     r7,r0
        0x00000880:    460c        .F      MOV      r4,r1
        0x00000882:    4856        VH      LDR      r0,[pc,#344] ; [0x9dc] = 0x50000200
        0x00000884:    b085        ..      SUB      sp,sp,#0x14
        0x00000886:    4954        TI      LDR      r1,[pc,#336] ; [0x9d8] = 0x10000
        0x00000888:    6201        .b      STR      r1,[r0,#0x20]
        0x0000088a:    4e55        UN      LDR      r6,[pc,#340] ; [0x9e0] = 0xb71b00
        0x0000088c:    6801        .h      LDR      r1,[r0,#0]
        0x0000088e:    d013        ..      BEQ      0x8b8 ; CLK_EnablePLL + 60
        0x00000890:    2204        ."      MOVS     r2,#4
        0x00000892:    4311        .C      ORRS     r1,r1,r2
        0x00000894:    6001        .`      STR      r1,[r0,#0]
        0x00000896:    2010        .       MOVS     r0,#0x10
        0x00000898:    f000f9be    ....    BL       CLK_WaitClockReady ; 0xc18
        0x0000089c:    2001        .       MOVS     r0,#1
        0x0000089e:    04c0        ..      LSLS     r0,r0,#19
        0x000008a0:    9002        ..      STR      r0,[sp,#8]
        0x000008a2:    4850        PH      LDR      r0,[pc,#320] ; [0x9e4] = 0x1518000
        0x000008a4:    2504        .%      MOVS     r5,#4
        0x000008a6:    9003        ..      STR      r0,[sp,#0xc]
        0x000008a8:    484f        OH      LDR      r0,[pc,#316] ; [0x9e8] = 0xfa0a1eff
        0x000008aa:    4950        PI      LDR      r1,[pc,#320] ; [0x9ec] = 0x5f5e0ff
        0x000008ac:    1820         .      ADDS     r0,r4,r0
        0x000008ae:    4288        .B      CMP      r0,r1
        0x000008b0:    d80d        ..      BHI      0x8ce ; CLK_EnablePLL + 82
        0x000008b2:    2000        .       MOVS     r0,#0
        0x000008b4:    9004        ..      STR      r0,[sp,#0x10]
        0x000008b6:    e01c        ..      B        0x8f2 ; CLK_EnablePLL + 118
        0x000008b8:    2201        ."      MOVS     r2,#1
        0x000008ba:    4311        .C      ORRS     r1,r1,r2
        0x000008bc:    6001        .`      STR      r1,[r0,#0]
        0x000008be:    4610        .F      MOV      r0,r2
        0x000008c0:    f000f9aa    ....    BL       CLK_WaitClockReady ; 0xc18
        0x000008c4:    2000        .       MOVS     r0,#0
        0x000008c6:    2502        .%      MOVS     r5,#2
        0x000008c8:    9603        ..      STR      r6,[sp,#0xc]
        0x000008ca:    9002        ..      STR      r0,[sp,#8]
        0x000008cc:    e7ec        ..      B        0x8a8 ; CLK_EnablePLL + 44
        0x000008ce:    4848        HH      LDR      r0,[pc,#288] ; [0x9f0] = 0xfd050f7f
        0x000008d0:    4948        HI      LDR      r1,[pc,#288] ; [0x9f4] = 0x2faf07f
        0x000008d2:    1820         .      ADDS     r0,r4,r0
        0x000008d4:    4288        .B      CMP      r0,r1
        0x000008d6:    d803        ..      BHI      0x8e0 ; CLK_EnablePLL + 100
        0x000008d8:    2001        .       MOVS     r0,#1
        0x000008da:    0064        d.      LSLS     r4,r4,#1
        0x000008dc:    9004        ..      STR      r0,[sp,#0x10]
        0x000008de:    e008        ..      B        0x8f2 ; CLK_EnablePLL + 118
        0x000008e0:    4845        EH      LDR      r0,[pc,#276] ; [0x9f8] = 0xfe8287c0
        0x000008e2:    4945        EI      LDR      r1,[pc,#276] ; [0x9f8] = 0xfe8287c0
        0x000008e4:    1820         .      ADDS     r0,r4,r0
        0x000008e6:    4249        IB      RSBS     r1,r1,#0
        0x000008e8:    4288        .B      CMP      r0,r1
        0x000008ea:    d849        I.      BHI      0x980 ; CLK_EnablePLL + 260
        0x000008ec:    2003        .       MOVS     r0,#3
        0x000008ee:    00a4        ..      LSLS     r4,r4,#2
        0x000008f0:    9004        ..      STR      r0,[sp,#0x10]
        0x000008f2:    2600        .&      MOVS     r6,#0
        0x000008f4:    43f6        .C      MVNS     r6,r6
        0x000008f6:    2000        .       MOVS     r0,#0
        0x000008f8:    9000        ..      STR      r0,[sp,#0]
        0x000008fa:    9001        ..      STR      r0,[sp,#4]
        0x000008fc:    e021        !.      B        0x942 ; CLK_EnablePLL + 198
        0x000008fe:    4629        )F      MOV      r1,r5
        0x00000900:    9803        ..      LDR      r0,[sp,#0xc]
        0x00000902:    f7fffc39    ..9.    BL       __aeabi_uidiv ; 0x178
        0x00000906:    493d        =I      LDR      r1,[pc,#244] ; [0x9fc] = 0xffe795ff
        0x00000908:    4a3d        =J      LDR      r2,[pc,#244] ; [0xa00] = 0xcc77bf
        0x0000090a:    1841        A.      ADDS     r1,r0,r1
        0x0000090c:    4291        .B      CMP      r1,r2
        0x0000090e:    d217        ..      BCS      0x940 ; CLK_EnablePLL + 196
        0x00000910:    2202        ."      MOVS     r2,#2
        0x00000912:    4b35        5K      LDR      r3,[pc,#212] ; [0x9e8] = 0xfa0a1eff
        0x00000914:    4601        .F      MOV      r1,r0
        0x00000916:    4351        QC      MULS     r1,r2,r1
        0x00000918:    1c5b        [.      ADDS     r3,r3,#1
        0x0000091a:    18cf        ..      ADDS     r7,r1,r3
        0x0000091c:    425b        [B      RSBS     r3,r3,#0
        0x0000091e:    429f        .B      CMP      r7,r3
        0x00000920:    d80a        ..      BHI      0x938 ; CLK_EnablePLL + 188
        0x00000922:    42a1        .B      CMP      r1,r4
        0x00000924:    d901        ..      BLS      0x92a ; CLK_EnablePLL + 174
        0x00000926:    1b0b        ..      SUBS     r3,r1,r4
        0x00000928:    e000        ..      B        0x92c ; CLK_EnablePLL + 176
        0x0000092a:    1a63        c.      SUBS     r3,r4,r1
        0x0000092c:    42b3        .B      CMP      r3,r6
        0x0000092e:    d203        ..      BCS      0x938 ; CLK_EnablePLL + 188
        0x00000930:    001e        ..      MOVS     r6,r3
        0x00000932:    9500        ..      STR      r5,[sp,#0]
        0x00000934:    9201        ..      STR      r2,[sp,#4]
        0x00000936:    d003        ..      BEQ      0x940 ; CLK_EnablePLL + 196
        0x00000938:    4932        2I      LDR      r1,[pc,#200] ; [0xa04] = 0x201
        0x0000093a:    1c52        R.      ADDS     r2,r2,#1
        0x0000093c:    428a        .B      CMP      r2,r1
        0x0000093e:    d9e8        ..      BLS      0x912 ; CLK_EnablePLL + 150
        0x00000940:    1c6d        m.      ADDS     r5,r5,#1
        0x00000942:    2d21        !-      CMP      r5,#0x21
        0x00000944:    d9db        ..      BLS      0x8fe ; CLK_EnablePLL + 130
        0x00000946:    9804        ..      LDR      r0,[sp,#0x10]
        0x00000948:    9902        ..      LDR      r1,[sp,#8]
        0x0000094a:    0380        ..      LSLS     r0,r0,#14
        0x0000094c:    4308        .C      ORRS     r0,r0,r1
        0x0000094e:    9900        ..      LDR      r1,[sp,#0]
        0x00000950:    2201        ."      MOVS     r2,#1
        0x00000952:    0249        I.      LSLS     r1,r1,#9
        0x00000954:    0292        ..      LSLS     r2,r2,#10
        0x00000956:    1a89        ..      SUBS     r1,r1,r2
        0x00000958:    4308        .C      ORRS     r0,r0,r1
        0x0000095a:    9901        ..      LDR      r1,[sp,#4]
        0x0000095c:    1e89        ..      SUBS     r1,r1,#2
        0x0000095e:    4308        .C      ORRS     r0,r0,r1
        0x00000960:    491e        .I      LDR      r1,[pc,#120] ; [0x9dc] = 0x50000200
        0x00000962:    6208        .b      STR      r0,[r1,#0x20]
        0x00000964:    2004        .       MOVS     r0,#4
        0x00000966:    f000f957    ..W.    BL       CLK_WaitClockReady ; 0xc18
        0x0000096a:    9904        ..      LDR      r1,[sp,#0x10]
        0x0000096c:    9800        ..      LDR      r0,[sp,#0]
        0x0000096e:    1c49        I.      ADDS     r1,r1,#1
        0x00000970:    4341        AC      MULS     r1,r0,r1
        0x00000972:    9803        ..      LDR      r0,[sp,#0xc]
        0x00000974:    f7fffc00    ....    BL       __aeabi_uidiv ; 0x178
        0x00000978:    9901        ..      LDR      r1,[sp,#4]
        0x0000097a:    4348        HC      MULS     r0,r1,r0
        0x0000097c:    b005        ..      ADD      sp,sp,#0x14
        0x0000097e:    bdf0        ..      POP      {r4-r7,pc}
        0x00000980:    2f00        ./      CMP      r7,#0
        0x00000982:    d00f        ..      BEQ      0x9a4 ; CLK_EnablePLL + 296
        0x00000984:    4920         I      LDR      r1,[pc,#128] ; [0xa08] = 0xd66f
        0x00000986:    4815        .H      LDR      r0,[pc,#84] ; [0x9dc] = 0x50000200
        0x00000988:    6201        .b      STR      r1,[r0,#0x20]
        0x0000098a:    2004        .       MOVS     r0,#4
        0x0000098c:    f000f944    ..D.    BL       CLK_WaitClockReady ; 0xc18
        0x00000990:    a01e        ..      ADR      r0,{pc}+0x7c ; 0xa0c
        0x00000992:    6800        .h      LDR      r0,[r0,#0]
        0x00000994:    9000        ..      STR      r0,[sp,#0]
        0x00000996:    4811        .H      LDR      r0,[pc,#68] ; [0x9dc] = 0x50000200
        0x00000998:    6a01        .j      LDR      r1,[r0,#0x20]
        0x0000099a:    1300        ..      ASRS     r0,r0,#12
        0x0000099c:    4201        .B      TST      r1,r0
        0x0000099e:    d003        ..      BEQ      0x9a8 ; CLK_EnablePLL + 300
        0x000009a0:    2000        .       MOVS     r0,#0
        0x000009a2:    e7eb        ..      B        0x97c ; CLK_EnablePLL + 256
        0x000009a4:    491a        .I      LDR      r1,[pc,#104] ; [0xa10] = 0xc22e
        0x000009a6:    e7ee        ..      B        0x986 ; CLK_EnablePLL + 266
        0x000009a8:    0308        ..      LSLS     r0,r1,#12
        0x000009aa:    d500        ..      BPL      0x9ae ; CLK_EnablePLL + 306
        0x000009ac:    4e0d        .N      LDR      r6,[pc,#52] ; [0x9e4] = 0x1518000
        0x000009ae:    0388        ..      LSLS     r0,r1,#14
        0x000009b0:    d501        ..      BPL      0x9b6 ; CLK_EnablePLL + 314
        0x000009b2:    4630        0F      MOV      r0,r6
        0x000009b4:    e7e2        ..      B        0x97c ; CLK_EnablePLL + 256
        0x000009b6:    0408        ..      LSLS     r0,r1,#16
        0x000009b8:    0f80        ..      LSRS     r0,r0,#30
        0x000009ba:    466a        jF      MOV      r2,sp
        0x000009bc:    5c10        .\      LDRB     r0,[r2,r0]
        0x000009be:    05ca        ..      LSLS     r2,r1,#23
        0x000009c0:    0489        ..      LSLS     r1,r1,#18
        0x000009c2:    0ec9        ..      LSRS     r1,r1,#27
        0x000009c4:    1c89        ..      ADDS     r1,r1,#2
        0x000009c6:    0dd2        ..      LSRS     r2,r2,#23
        0x000009c8:    4341        AC      MULS     r1,r0,r1
        0x000009ca:    08b0        ..      LSRS     r0,r6,#2
        0x000009cc:    1c92        ..      ADDS     r2,r2,#2
        0x000009ce:    4350        PC      MULS     r0,r2,r0
        0x000009d0:    f7fffbd2    ....    BL       __aeabi_uidiv ; 0x178
        0x000009d4:    0080        ..      LSLS     r0,r0,#2
        0x000009d6:    e7d1        ..      B        0x97c ; CLK_EnablePLL + 256
    $d
        0x000009d8:    00010000    ....    DCD    65536
        0x000009dc:    50000200    ...P    DCD    1342177792
        0x000009e0:    00b71b00    ....    DCD    12000000
        0x000009e4:    01518000    ..Q.    DCD    22118400
        0x000009e8:    fa0a1eff    ....    DCD    4194967295
        0x000009ec:    05f5e0ff    ....    DCD    99999999
        0x000009f0:    fd050f7f    ....    DCD    4244967295
        0x000009f4:    02faf07f    ....    DCD    49999999
        0x000009f8:    fe8287c0    ....    DCD    4269967296
        0x000009fc:    ffe795ff    ....    DCD    4293367295
        0x00000a00:    00cc77bf    .w..    DCD    13399999
        0x00000a04:    00000201    ....    DCD    513
        0x00000a08:    0000d66f    o...    DCD    54895
        0x00000a0c:    04020201    ....    DCD    67240449
        0x00000a10:    0000c22e    ....    DCD    49710
    $t
    i.CLK_EnableXtalRC
    CLK_EnableXtalRC
        0x00000a14:    4902        .I      LDR      r1,[pc,#8] ; [0xa20] = 0x50000200
        0x00000a16:    680a        .h      LDR      r2,[r1,#0]
        0x00000a18:    4302        .C      ORRS     r2,r2,r0
        0x00000a1a:    600a        .`      STR      r2,[r1,#0]
        0x00000a1c:    4770        pG      BX       lr
    $d
        0x00000a1e:    0000        ..      DCW    0
        0x00000a20:    50000200    ...P    DCD    1342177792
    $t
    i.CLK_GetHCLKFreq
    CLK_GetHCLKFreq
        0x00000a24:    b510        ..      PUSH     {r4,lr}
        0x00000a26:    f000fcfb    ....    BL       SystemCoreClockUpdate ; 0x1420
        0x00000a2a:    4801        .H      LDR      r0,[pc,#4] ; [0xa30] = 0x20000000
        0x00000a2c:    6800        .h      LDR      r0,[r0,#0]
        0x00000a2e:    bd10        ..      POP      {r4,pc}
    $d
        0x00000a30:    20000000    ...     DCD    536870912
    $t
    i.CLK_GetPLLClockFreq
    CLK_GetPLLClockFreq
        0x00000a34:    b508        ..      PUSH     {r3,lr}
        0x00000a36:    a011        ..      ADR      r0,{pc}+0x46 ; 0xa7c
        0x00000a38:    6800        .h      LDR      r0,[r0,#0]
        0x00000a3a:    9000        ..      STR      r0,[sp,#0]
        0x00000a3c:    4810        .H      LDR      r0,[pc,#64] ; [0xa80] = 0x50000200
        0x00000a3e:    6a01        .j      LDR      r1,[r0,#0x20]
        0x00000a40:    1300        ..      ASRS     r0,r0,#12
        0x00000a42:    4201        .B      TST      r1,r0
        0x00000a44:    d001        ..      BEQ      0xa4a ; CLK_GetPLLClockFreq + 22
        0x00000a46:    2000        .       MOVS     r0,#0
        0x00000a48:    bd08        ..      POP      {r3,pc}
        0x00000a4a:    0308        ..      LSLS     r0,r1,#12
        0x00000a4c:    d501        ..      BPL      0xa52 ; CLK_GetPLLClockFreq + 30
        0x00000a4e:    480d        .H      LDR      r0,[pc,#52] ; [0xa84] = 0x1518000
        0x00000a50:    e000        ..      B        0xa54 ; CLK_GetPLLClockFreq + 32
        0x00000a52:    480d        .H      LDR      r0,[pc,#52] ; [0xa88] = 0xb71b00
        0x00000a54:    038a        ..      LSLS     r2,r1,#14
        0x00000a56:    d4f7        ..      BMI      0xa48 ; CLK_GetPLLClockFreq + 20
        0x00000a58:    040a        ..      LSLS     r2,r1,#16
        0x00000a5a:    0f92        ..      LSRS     r2,r2,#30
        0x00000a5c:    466b        kF      MOV      r3,sp
        0x00000a5e:    5c9b        .\      LDRB     r3,[r3,r2]
        0x00000a60:    05ca        ..      LSLS     r2,r1,#23
        0x00000a62:    0489        ..      LSLS     r1,r1,#18
        0x00000a64:    0dd2        ..      LSRS     r2,r2,#23
        0x00000a66:    0ec9        ..      LSRS     r1,r1,#27
        0x00000a68:    1c89        ..      ADDS     r1,r1,#2
        0x00000a6a:    0880        ..      LSRS     r0,r0,#2
        0x00000a6c:    1c92        ..      ADDS     r2,r2,#2
        0x00000a6e:    4359        YC      MULS     r1,r3,r1
        0x00000a70:    4350        PC      MULS     r0,r2,r0
        0x00000a72:    f7fffb81    ....    BL       __aeabi_uidiv ; 0x178
        0x00000a76:    0080        ..      LSLS     r0,r0,#2
        0x00000a78:    bd08        ..      POP      {r3,pc}
    $d
        0x00000a7a:    0000        ..      DCW    0
        0x00000a7c:    04020201    ....    DCD    67240449
        0x00000a80:    50000200    ...P    DCD    1342177792
        0x00000a84:    01518000    ..Q.    DCD    22118400
        0x00000a88:    00b71b00    ....    DCD    12000000
    $t
    i.CLK_SetCoreClock
    CLK_SetCoreClock
        0x00000a8c:    b5f8        ..      PUSH     {r3-r7,lr}
        0x00000a8e:    4c1b        .L      LDR      r4,[pc,#108] ; [0xafc] = 0x50000200
        0x00000a90:    68e5        .h      LDR      r5,[r4,#0xc]
        0x00000a92:    2110        .!      MOVS     r1,#0x10
        0x00000a94:    400d        .@      ANDS     r5,r5,r1
        0x00000a96:    491a        .I      LDR      r1,[pc,#104] ; [0xb00] = 0x2faf080
        0x00000a98:    4288        .B      CMP      r0,r1
        0x00000a9a:    d802        ..      BHI      0xaa2 ; CLK_SetCoreClock + 22
        0x00000a9c:    1049        I.      ASRS     r1,r1,#1
        0x00000a9e:    4288        .B      CMP      r0,r1
        0x00000aa0:    d200        ..      BCS      0xaa4 ; CLK_SetCoreClock + 24
        0x00000aa2:    4608        .F      MOV      r0,r1
        0x00000aa4:    6821        !h      LDR      r1,[r4,#0]
        0x00000aa6:    2604        .&      MOVS     r6,#4
        0x00000aa8:    4331        1C      ORRS     r1,r1,r6
        0x00000aaa:    6021        !`      STR      r1,[r4,#0]
        0x00000aac:    68e1        .h      LDR      r1,[r4,#0xc]
        0x00000aae:    06c9        ..      LSLS     r1,r1,#27
        0x00000ab0:    d5fc        ..      BPL      0xaac ; CLK_SetCoreClock + 32
        0x00000ab2:    6921        !i      LDR      r1,[r4,#0x10]
        0x00000ab4:    2207        ."      MOVS     r2,#7
        0x00000ab6:    4311        .C      ORRS     r1,r1,r2
        0x00000ab8:    6121        !a      STR      r1,[r4,#0x10]
        0x00000aba:    6a21        !j      LDR      r1,[r4,#0x20]
        0x00000abc:    2201        ."      MOVS     r2,#1
        0x00000abe:    0412        ..      LSLS     r2,r2,#16
        0x00000ac0:    4311        .C      ORRS     r1,r1,r2
        0x00000ac2:    6221        !b      STR      r1,[r4,#0x20]
        0x00000ac4:    68e1        .h      LDR      r1,[r4,#0xc]
        0x00000ac6:    07c9        ..      LSLS     r1,r1,#31
        0x00000ac8:    4601        .F      MOV      r1,r0
        0x00000aca:    d004        ..      BEQ      0xad6 ; CLK_SetCoreClock + 74
        0x00000acc:    2000        .       MOVS     r0,#0
        0x00000ace:    f7fffed5    ....    BL       CLK_EnablePLL ; 0x87c
        0x00000ad2:    4607        .F      MOV      r7,r0
        0x00000ad4:    e007        ..      B        0xae6 ; CLK_SetCoreClock + 90
        0x00000ad6:    2001        .       MOVS     r0,#1
        0x00000ad8:    04c0        ..      LSLS     r0,r0,#19
        0x00000ada:    f7fffecf    ....    BL       CLK_EnablePLL ; 0x87c
        0x00000ade:    68e5        .h      LDR      r5,[r4,#0xc]
        0x00000ae0:    4607        .F      MOV      r7,r0
        0x00000ae2:    2010        .       MOVS     r0,#0x10
        0x00000ae4:    4005        .@      ANDS     r5,r5,r0
        0x00000ae6:    2100        .!      MOVS     r1,#0
        0x00000ae8:    2002        .       MOVS     r0,#2
        0x00000aea:    f000f80b    ....    BL       CLK_SetHCLK ; 0xb04
        0x00000aee:    2d00        .-      CMP      r5,#0
        0x00000af0:    d102        ..      BNE      0xaf8 ; CLK_SetCoreClock + 108
        0x00000af2:    6820         h      LDR      r0,[r4,#0]
        0x00000af4:    43b0        .C      BICS     r0,r0,r6
        0x00000af6:    6020         `      STR      r0,[r4,#0]
        0x00000af8:    4638        8F      MOV      r0,r7
        0x00000afa:    bdf8        ..      POP      {r3-r7,pc}
    $d
        0x00000afc:    50000200    ...P    DCD    1342177792
        0x00000b00:    02faf080    ....    DCD    50000000
    $t
    i.CLK_SetHCLK
    CLK_SetHCLK
        0x00000b04:    b570        p.      PUSH     {r4-r6,lr}
        0x00000b06:    4c10        .L      LDR      r4,[pc,#64] ; [0xb48] = 0x50000200
        0x00000b08:    68e5        .h      LDR      r5,[r4,#0xc]
        0x00000b0a:    2610        .&      MOVS     r6,#0x10
        0x00000b0c:    6822        "h      LDR      r2,[r4,#0]
        0x00000b0e:    4035        5@      ANDS     r5,r5,r6
        0x00000b10:    2304        .#      MOVS     r3,#4
        0x00000b12:    431a        .C      ORRS     r2,r2,r3
        0x00000b14:    6022        "`      STR      r2,[r4,#0]
        0x00000b16:    68e2        .h      LDR      r2,[r4,#0xc]
        0x00000b18:    06d2        ..      LSLS     r2,r2,#27
        0x00000b1a:    d5fc        ..      BPL      0xb16 ; CLK_SetHCLK + 18
        0x00000b1c:    6922        "i      LDR      r2,[r4,#0x10]
        0x00000b1e:    2307        .#      MOVS     r3,#7
        0x00000b20:    431a        .C      ORRS     r2,r2,r3
        0x00000b22:    6122        "a      STR      r2,[r4,#0x10]
        0x00000b24:    69a2        .i      LDR      r2,[r4,#0x18]
        0x00000b26:    0912        ..      LSRS     r2,r2,#4
        0x00000b28:    0112        ..      LSLS     r2,r2,#4
        0x00000b2a:    430a        .C      ORRS     r2,r2,r1
        0x00000b2c:    61a2        .a      STR      r2,[r4,#0x18]
        0x00000b2e:    6921        !i      LDR      r1,[r4,#0x10]
        0x00000b30:    4399        .C      BICS     r1,r1,r3
        0x00000b32:    4301        .C      ORRS     r1,r1,r0
        0x00000b34:    6121        !a      STR      r1,[r4,#0x10]
        0x00000b36:    f000fc73    ..s.    BL       SystemCoreClockUpdate ; 0x1420
        0x00000b3a:    2d00        .-      CMP      r5,#0
        0x00000b3c:    d102        ..      BNE      0xb44 ; CLK_SetHCLK + 64
        0x00000b3e:    6820         h      LDR      r0,[r4,#0]
        0x00000b40:    43b0        .C      BICS     r0,r0,r6
        0x00000b42:    6020         `      STR      r0,[r4,#0]
        0x00000b44:    bd70        p.      POP      {r4-r6,pc}
    $d
        0x00000b46:    0000        ..      DCW    0
        0x00000b48:    50000200    ...P    DCD    1342177792
    $t
    i.CLK_SetModuleClock
    CLK_SetModuleClock
        0x00000b4c:    b5f0        ..      PUSH     {r4-r7,lr}
        0x00000b4e:    4b2c        ,K      LDR      r3,[pc,#176] ; [0xc00] = 0x2ab0
        0x00000b50:    b086        ..      SUB      sp,sp,#0x18
        0x00000b52:    461c        .F      MOV      r4,r3
        0x00000b54:    3408        .4      ADDS     r4,r4,#8
        0x00000b56:    ccf0        ..      LDM      r4,{r4-r7}
        0x00000b58:    9400        ..      STR      r4,[sp,#0]
        0x00000b5a:    ac01        ..      ADD      r4,sp,#4
        0x00000b5c:    c4e0        ..      STM      r4!,{r5-r7}
        0x00000b5e:    cb18        ..      LDM      r3,{r3,r4}
        0x00000b60:    9304        ..      STR      r3,[sp,#0x10]
        0x00000b62:    0e43        C.      LSRS     r3,r0,#25
        0x00000b64:    9405        ..      STR      r4,[sp,#0x14]
        0x00000b66:    075b        [.      LSLS     r3,r3,#29
        0x00000b68:    d034        4.      BEQ      0xbd4 ; CLK_SetModuleClock + 136
        0x00000b6a:    0083        ..      LSLS     r3,r0,#2
        0x00000b6c:    0f9b        ..      LSRS     r3,r3,#30
        0x00000b6e:    009b        ..      LSLS     r3,r3,#2
        0x00000b70:    466c        lF      MOV      r4,sp
        0x00000b72:    58e3        .X      LDR      r3,[r4,r3]
        0x00000b74:    4c23        #L      LDR      r4,[pc,#140] ; [0xc04] = 0x50000210
        0x00000b76:    191b        ..      ADDS     r3,r3,r4
        0x00000b78:    0104        ..      LSLS     r4,r0,#4
        0x00000b7a:    0f65        e.      LSRS     r5,r4,#29
        0x00000b7c:    01c4        ..      LSLS     r4,r0,#7
        0x00000b7e:    0ee4        ..      LSRS     r4,r4,#27
        0x00000b80:    40a5        .@      LSLS     r5,r5,r4
        0x00000b82:    681c        .h      LDR      r4,[r3,#0]
        0x00000b84:    43ac        .C      BICS     r4,r4,r5
        0x00000b86:    430c        .C      ORRS     r4,r4,r1
        0x00000b88:    601c        .`      STR      r4,[r3,#0]
        0x00000b8a:    4b1e        .K      LDR      r3,[pc,#120] ; [0xc04] = 0x50000210
        0x00000b8c:    4c1e        .L      LDR      r4,[pc,#120] ; [0xc08] = 0x57c00014
        0x00000b8e:    3b10        .;      SUBS     r3,r3,#0x10
        0x00000b90:    42a0        .B      CMP      r0,r4
        0x00000b92:    d107        ..      BNE      0xba4 ; CLK_SetModuleClock + 88
        0x00000b94:    69dd        .i      LDR      r5,[r3,#0x1c]
        0x00000b96:    24ff        .$      MOVS     r4,#0xff
        0x00000b98:    3401        .4      ADDS     r4,#1
        0x00000b9a:    43a5        .C      BICS     r5,r5,r4
        0x00000b9c:    4021        !@      ANDS     r1,r1,r4
        0x00000b9e:    430d        .C      ORRS     r5,r5,r1
        0x00000ba0:    61dd        .a      STR      r5,[r3,#0x1c]
        0x00000ba2:    e017        ..      B        0xbd4 ; CLK_SetModuleClock + 136
        0x00000ba4:    4c19        .L      LDR      r4,[pc,#100] ; [0xc0c] = 0x57e00015
        0x00000ba6:    42a0        .B      CMP      r0,r4
        0x00000ba8:    d103        ..      BNE      0xbb2 ; CLK_SetModuleClock + 102
        0x00000baa:    69dc        .i      LDR      r4,[r3,#0x1c]
        0x00000bac:    2501        .%      MOVS     r5,#1
        0x00000bae:    026d        m.      LSLS     r5,r5,#9
        0x00000bb0:    e00c        ..      B        0xbcc ; CLK_SetModuleClock + 128
        0x00000bb2:    4c17        .L      LDR      r4,[pc,#92] ; [0xc10] = 0x66400016
        0x00000bb4:    42a0        .B      CMP      r0,r4
        0x00000bb6:    d103        ..      BNE      0xbc0 ; CLK_SetModuleClock + 116
        0x00000bb8:    69dc        .i      LDR      r4,[r3,#0x1c]
        0x00000bba:    2501        .%      MOVS     r5,#1
        0x00000bbc:    02ad        ..      LSLS     r5,r5,#10
        0x00000bbe:    e005        ..      B        0xbcc ; CLK_SetModuleClock + 128
        0x00000bc0:    4c14        .L      LDR      r4,[pc,#80] ; [0xc14] = 0x66600017
        0x00000bc2:    42a0        .B      CMP      r0,r4
        0x00000bc4:    d106        ..      BNE      0xbd4 ; CLK_SetModuleClock + 136
        0x00000bc6:    69dc        .i      LDR      r4,[r3,#0x1c]
        0x00000bc8:    2501        .%      MOVS     r5,#1
        0x00000bca:    02ed        ..      LSLS     r5,r5,#11
        0x00000bcc:    43ac        .C      BICS     r4,r4,r5
        0x00000bce:    4029        )@      ANDS     r1,r1,r5
        0x00000bd0:    430c        .C      ORRS     r4,r4,r1
        0x00000bd2:    61dc        .a      STR      r4,[r3,#0x1c]
        0x00000bd4:    0a83        ..      LSRS     r3,r0,#10
        0x00000bd6:    0619        ..      LSLS     r1,r3,#24
        0x00000bd8:    0e09        ..      LSRS     r1,r1,#24
        0x00000bda:    d00f        ..      BEQ      0xbfc ; CLK_SetModuleClock + 176
        0x00000bdc:    0301        ..      LSLS     r1,r0,#12
        0x00000bde:    0f89        ..      LSRS     r1,r1,#30
        0x00000be0:    0089        ..      LSLS     r1,r1,#2
        0x00000be2:    ac04        ..      ADD      r4,sp,#0x10
        0x00000be4:    5861        aX      LDR      r1,[r4,r1]
        0x00000be6:    4c07        .L      LDR      r4,[pc,#28] ; [0xc04] = 0x50000210
        0x00000be8:    0580        ..      LSLS     r0,r0,#22
        0x00000bea:    3408        .4      ADDS     r4,r4,#8
        0x00000bec:    1909        ..      ADDS     r1,r1,r4
        0x00000bee:    b2db        ..      UXTB     r3,r3
        0x00000bf0:    0ec0        ..      LSRS     r0,r0,#27
        0x00000bf2:    4083        .@      LSLS     r3,r3,r0
        0x00000bf4:    6808        .h      LDR      r0,[r1,#0]
        0x00000bf6:    4398        .C      BICS     r0,r0,r3
        0x00000bf8:    4310        .C      ORRS     r0,r0,r2
        0x00000bfa:    6008        .`      STR      r0,[r1,#0]
        0x00000bfc:    b006        ..      ADD      sp,sp,#0x18
        0x00000bfe:    bdf0        ..      POP      {r4-r7,pc}
    $d
        0x00000c00:    00002ab0    .*..    DCD    10928
        0x00000c04:    50000210    ...P    DCD    1342177808
        0x00000c08:    57c00014    ...W    DCD    1472200724
        0x00000c0c:    57e00015    ...W    DCD    1474297877
        0x00000c10:    66400016    ..@f    DCD    1715470358
        0x00000c14:    66600017    ..`f    DCD    1717567511
    $t
    i.CLK_WaitClockReady
    CLK_WaitClockReady
        0x00000c18:    b510        ..      PUSH     {r4,lr}
        0x00000c1a:    4604        .F      MOV      r4,r0
        0x00000c1c:    4907        .I      LDR      r1,[pc,#28] ; [0xc3c] = 0x124f80
        0x00000c1e:    4b08        .K      LDR      r3,[pc,#32] ; [0xc40] = 0x50000200
        0x00000c20:    e005        ..      B        0xc2e ; CLK_WaitClockReady + 22
        0x00000c22:    460a        .F      MOV      r2,r1
        0x00000c24:    1e49        I.      SUBS     r1,r1,#1
        0x00000c26:    2a00        .*      CMP      r2,#0
        0x00000c28:    dc01        ..      BGT      0xc2e ; CLK_WaitClockReady + 22
        0x00000c2a:    2000        .       MOVS     r0,#0
        0x00000c2c:    bd10        ..      POP      {r4,pc}
        0x00000c2e:    68da        .h      LDR      r2,[r3,#0xc]
        0x00000c30:    4620         F      MOV      r0,r4
        0x00000c32:    4390        .C      BICS     r0,r0,r2
        0x00000c34:    d1f5        ..      BNE      0xc22 ; CLK_WaitClockReady + 10
        0x00000c36:    2001        .       MOVS     r0,#1
        0x00000c38:    bd10        ..      POP      {r4,pc}
    $d
        0x00000c3a:    0000        ..      DCW    0
        0x00000c3c:    00124f80    .O..    DCD    1200000
        0x00000c40:    50000200    ...P    DCD    1342177792
    $t
    i.Hard_Fault_Handler
    Hard_Fault_Handler
    __tagsym$$used
        0x00000c44:    4604        .F      MOV      r4,r0
        0x00000c46:    a003        ..      ADR      r0,{pc}+0xe ; 0xc54
        0x00000c48:    f000fc4c    ..L.    BL       __0printf$5 ; 0x14e4
        0x00000c4c:    4620         F      MOV      r0,r4
        0x00000c4e:    f001fedb    ....    BL       stackDump ; 0x2a08
        0x00000c52:    e7fe        ..      B        0xc52 ; Hard_Fault_Handler + 14
    $d
        0x00000c54:    48206e49    In H    DCD    1210084937
        0x00000c58:    20647261    ard     DCD    543453793
        0x00000c5c:    6c756146    Faul    DCD    1819631942
        0x00000c60:    61482074    t Ha    DCD    1632116852
        0x00000c64:    656c646e    ndle    DCD    1701602414
        0x00000c68:    00000a72    r...    DCD    2674
    $t
    i.I2C0_IRQHandler
    I2C0_IRQHandler
        0x00000c6c:    b510        ..      PUSH     {r4,lr}
        0x00000c6e:    2000        .       MOVS     r0,#0
        0x00000c70:    f000f806    ....    BL       I2CX_IRQHandler ; 0xc80
        0x00000c74:    bd10        ..      POP      {r4,pc}
    i.I2C1_IRQHandler
    I2C1_IRQHandler
        0x00000c76:    b510        ..      PUSH     {r4,lr}
        0x00000c78:    2001        .       MOVS     r0,#1
        0x00000c7a:    f000f801    ....    BL       I2CX_IRQHandler ; 0xc80
        0x00000c7e:    bd10        ..      POP      {r4,pc}
    i.I2CX_IRQHandler
    I2CX_IRQHandler
        0x00000c80:    b510        ..      PUSH     {r4,lr}
        0x00000c82:    4919        .I      LDR      r1,[pc,#100] ; [0xce8] = 0x40020000
        0x00000c84:    4603        .F      MOV      r3,r0
        0x00000c86:    68c8        .h      LDR      r0,[r1,#0xc]
        0x00000c88:    694a        Ji      LDR      r2,[r1,#0x14]
        0x00000c8a:    43d2        .C      MVNS     r2,r2
        0x00000c8c:    07d4        ..      LSLS     r4,r2,#31
        0x00000c8e:    4a17        .J      LDR      r2,[pc,#92] ; [0xcec] = 0x20000054
        0x00000c90:    d008        ..      BEQ      0xca4 ; I2CX_IRQHandler + 36
        0x00000c92:    243c        <$      MOVS     r4,#0x3c
        0x00000c94:    2838        8(      CMP      r0,#0x38
        0x00000c96:    d019        ..      BEQ      0xccc ; I2CX_IRQHandler + 76
        0x00000c98:    dc0a        ..      BGT      0xcb0 ; I2CX_IRQHandler + 48
        0x00000c9a:    2800        .(      CMP      r0,#0
        0x00000c9c:    d016        ..      BEQ      0xccc ; I2CX_IRQHandler + 76
        0x00000c9e:    2830        0(      CMP      r0,#0x30
        0x00000ca0:    d10a        ..      BNE      0xcb8 ; I2CX_IRQHandler + 56
        0x00000ca2:    e013        ..      B        0xccc ; I2CX_IRQHandler + 76
        0x00000ca4:    2001        .       MOVS     r0,#1
        0x00000ca6:    7050        Pp      STRB     r0,[r2,#1]
        0x00000ca8:    4608        .F      MOV      r0,r1
        0x00000caa:    f000f8f3    ....    BL       I2C_ClearTimeoutFlag ; 0xe94
        0x00000cae:    bd10        ..      POP      {r4,pc}
        0x00000cb0:    2848        H(      CMP      r0,#0x48
        0x00000cb2:    d00b        ..      BEQ      0xccc ; I2CX_IRQHandler + 76
        0x00000cb4:    28f8        .(      CMP      r0,#0xf8
        0x00000cb6:    d009        ..      BEQ      0xccc ; I2CX_IRQHandler + 76
        0x00000cb8:    2b00        .+      CMP      r3,#0
        0x00000cba:    d010        ..      BEQ      0xcde ; I2CX_IRQHandler + 94
        0x00000cbc:    2b01        .+      CMP      r3,#1
        0x00000cbe:    d1f6        ..      BNE      0xcae ; I2CX_IRQHandler + 46
        0x00000cc0:    68d1        .h      LDR      r1,[r2,#0xc]
        0x00000cc2:    2900        .)      CMP      r1,#0
        0x00000cc4:    d0f3        ..      BEQ      0xcae ; I2CX_IRQHandler + 46
        0x00000cc6:    68d1        .h      LDR      r1,[r2,#0xc]
        0x00000cc8:    4788        .G      BLX      r1
        0x00000cca:    bd10        ..      POP      {r4,pc}
        0x00000ccc:    6808        .h      LDR      r0,[r1,#0]
        0x00000cce:    43a0        .C      BICS     r0,r0,r4
        0x00000cd0:    3018        .0      ADDS     r0,r0,#0x18
        0x00000cd2:    6008        .`      STR      r0,[r1,#0]
        0x00000cd4:    6808        .h      LDR      r0,[r1,#0]
        0x00000cd6:    43a0        .C      BICS     r0,r0,r4
        0x00000cd8:    3020         0      ADDS     r0,r0,#0x20
        0x00000cda:    6008        .`      STR      r0,[r1,#0]
        0x00000cdc:    bd10        ..      POP      {r4,pc}
        0x00000cde:    6891        .h      LDR      r1,[r2,#8]
        0x00000ce0:    2900        .)      CMP      r1,#0
        0x00000ce2:    d0fb        ..      BEQ      0xcdc ; I2CX_IRQHandler + 92
        0x00000ce4:    6891        .h      LDR      r1,[r2,#8]
        0x00000ce6:    e7ef        ..      B        0xcc8 ; I2CX_IRQHandler + 72
    $d
        0x00000ce8:    40020000    ...@    DCD    1073872896
        0x00000cec:    20000054    T..     DCD    536870996
    $t
    i.I2C_Callback_Rx_Continue
    I2C_Callback_Rx_Continue
        0x00000cf0:    b5f8        ..      PUSH     {r3-r7,lr}
        0x00000cf2:    4d35        5M      LDR      r5,[pc,#212] ; [0xdc8] = 0x20000054
        0x00000cf4:    4601        .F      MOV      r1,r0
        0x00000cf6:    78a8        .x      LDRB     r0,[r5,#2]
        0x00000cf8:    2400        .$      MOVS     r4,#0
        0x00000cfa:    0042        B.      LSLS     r2,r0,#1
        0x00000cfc:    4833        3H      LDR      r0,[pc,#204] ; [0xdcc] = 0x40020000
        0x00000cfe:    2908        .)      CMP      r1,#8
        0x00000d00:    d013        ..      BEQ      0xd2a ; I2C_Callback_Rx_Continue + 58
        0x00000d02:    2918        .)      CMP      r1,#0x18
        0x00000d04:    d014        ..      BEQ      0xd30 ; I2C_Callback_Rx_Continue + 64
        0x00000d06:    2920         )      CMP      r1,#0x20
        0x00000d08:    d023        #.      BEQ      0xd52 ; I2C_Callback_Rx_Continue + 98
        0x00000d0a:    2928        ()      CMP      r1,#0x28
        0x00000d0c:    d025        %.      BEQ      0xd5a ; I2C_Callback_Rx_Continue + 106
        0x00000d0e:    2910        .)      CMP      r1,#0x10
        0x00000d10:    d028        (.      BEQ      0xd64 ; I2C_Callback_Rx_Continue + 116
        0x00000d12:    2601        .&      MOVS     r6,#1
        0x00000d14:    2940        @)      CMP      r1,#0x40
        0x00000d16:    d028        (.      BEQ      0xd6a ; I2C_Callback_Rx_Continue + 122
        0x00000d18:    4f2d        -O      LDR      r7,[pc,#180] ; [0xdd0] = 0x20000144
        0x00000d1a:    2958        X)      CMP      r1,#0x58
        0x00000d1c:    d02f        /.      BEQ      0xd7e ; I2C_Callback_Rx_Continue + 142
        0x00000d1e:    2950        P)      CMP      r1,#0x50
        0x00000d20:    d03d        =.      BEQ      0xd9e ; I2C_Callback_Rx_Continue + 174
        0x00000d22:    a02c        ,.      ADR      r0,{pc}+0xb2 ; 0xdd4
        0x00000d24:    f000fbde    ....    BL       __0printf$5 ; 0x14e4
        0x00000d28:    bdf8        ..      POP      {r3-r7,pc}
        0x00000d2a:    7929        )y      LDRB     r1,[r5,#4]
        0x00000d2c:    430a        .C      ORRS     r2,r2,r1
        0x00000d2e:    e01a        ..      B        0xd66 ; I2C_Callback_Rx_Continue + 118
        0x00000d30:    4927        'I      LDR      r1,[pc,#156] ; [0xdd0] = 0x20000144
        0x00000d32:    796a        jy      LDRB     r2,[r5,#5]
        0x00000d34:    39c8        .9      SUBS     r1,r1,#0xc8
        0x00000d36:    5c89        .\      LDRB     r1,[r1,r2]
        0x00000d38:    1c52        R.      ADDS     r2,r2,#1
        0x00000d3a:    716a        jq      STRB     r2,[r5,#5]
        0x00000d3c:    4605        .F      MOV      r5,r0
        0x00000d3e:    f000f8fd    ....    BL       I2C_SetData ; 0xf3c
        0x00000d42:    2200        ."      MOVS     r2,#0
        0x00000d44:    2301        .#      MOVS     r3,#1
        0x00000d46:    4611        .F      MOV      r1,r2
        0x00000d48:    4628        (F      MOV      r0,r5
        0x00000d4a:    9400        ..      STR      r4,[sp,#0]
        0x00000d4c:    f000f8a7    ....    BL       I2C_Ctrl ; 0xe9e
        0x00000d50:    bdf8        ..      POP      {r3-r7,pc}
        0x00000d52:    2301        .#      MOVS     r3,#1
        0x00000d54:    461a        .F      MOV      r2,r3
        0x00000d56:    9400        ..      STR      r4,[sp,#0]
        0x00000d58:    e00f        ..      B        0xd7a ; I2C_Callback_Rx_Continue + 138
        0x00000d5a:    2301        .#      MOVS     r3,#1
        0x00000d5c:    2200        ."      MOVS     r2,#0
        0x00000d5e:    4619        .F      MOV      r1,r3
        0x00000d60:    9400        ..      STR      r4,[sp,#0]
        0x00000d62:    e7f3        ..      B        0xd4c ; I2C_Callback_Rx_Continue + 92
        0x00000d64:    1c52        R.      ADDS     r2,r2,#1
        0x00000d66:    b2d1        ..      UXTB     r1,r2
        0x00000d68:    e7e8        ..      B        0xd3c ; I2C_Callback_Rx_Continue + 76
        0x00000d6a:    79e9        .y      LDRB     r1,[r5,#7]
        0x00000d6c:    2901        .)      CMP      r1,#1
        0x00000d6e:    d901        ..      BLS      0xd74 ; I2C_Callback_Rx_Continue + 132
        0x00000d70:    9600        ..      STR      r6,[sp,#0]
        0x00000d72:    e000        ..      B        0xd76 ; I2C_Callback_Rx_Continue + 134
        0x00000d74:    9400        ..      STR      r4,[sp,#0]
        0x00000d76:    2301        .#      MOVS     r3,#1
        0x00000d78:    2200        ."      MOVS     r2,#0
        0x00000d7a:    2100        .!      MOVS     r1,#0
        0x00000d7c:    e7e6        ..      B        0xd4c ; I2C_Callback_Rx_Continue + 92
        0x00000d7e:    4813        .H      LDR      r0,[pc,#76] ; [0xdcc] = 0x40020000
        0x00000d80:    f000f8bc    ....    BL       I2C_GetData ; 0xefc
        0x00000d84:    79a9        .y      LDRB     r1,[r5,#6]
        0x00000d86:    2301        .#      MOVS     r3,#1
        0x00000d88:    5478        xT      STRB     r0,[r7,r1]
        0x00000d8a:    1c49        I.      ADDS     r1,r1,#1
        0x00000d8c:    71a9        .q      STRB     r1,[r5,#6]
        0x00000d8e:    461a        .F      MOV      r2,r3
        0x00000d90:    2100        .!      MOVS     r1,#0
        0x00000d92:    480e        .H      LDR      r0,[pc,#56] ; [0xdcc] = 0x40020000
        0x00000d94:    9400        ..      STR      r4,[sp,#0]
        0x00000d96:    f000f882    ....    BL       I2C_Ctrl ; 0xe9e
        0x00000d9a:    702e        .p      STRB     r6,[r5,#0]
        0x00000d9c:    bdf8        ..      POP      {r3-r7,pc}
        0x00000d9e:    480b        .H      LDR      r0,[pc,#44] ; [0xdcc] = 0x40020000
        0x00000da0:    f000f8ac    ....    BL       I2C_GetData ; 0xefc
        0x00000da4:    79a9        .y      LDRB     r1,[r5,#6]
        0x00000da6:    5478        xT      STRB     r0,[r7,r1]
        0x00000da8:    1c49        I.      ADDS     r1,r1,#1
        0x00000daa:    b2c8        ..      UXTB     r0,r1
        0x00000dac:    71a8        .q      STRB     r0,[r5,#6]
        0x00000dae:    79e9        .y      LDRB     r1,[r5,#7]
        0x00000db0:    1e49        I.      SUBS     r1,r1,#1
        0x00000db2:    4288        .B      CMP      r0,r1
        0x00000db4:    da01        ..      BGE      0xdba ; I2C_Callback_Rx_Continue + 202
        0x00000db6:    9600        ..      STR      r6,[sp,#0]
        0x00000db8:    e000        ..      B        0xdbc ; I2C_Callback_Rx_Continue + 204
        0x00000dba:    9400        ..      STR      r4,[sp,#0]
        0x00000dbc:    2301        .#      MOVS     r3,#1
        0x00000dbe:    2200        ."      MOVS     r2,#0
        0x00000dc0:    4611        .F      MOV      r1,r2
        0x00000dc2:    4802        .H      LDR      r0,[pc,#8] ; [0xdcc] = 0x40020000
        0x00000dc4:    e7c2        ..      B        0xd4c ; I2C_Callback_Rx_Continue + 92
    $d
        0x00000dc6:    0000        ..      DCW    0
        0x00000dc8:    20000054    T..     DCD    536870996
        0x00000dcc:    40020000    ...@    DCD    1073872896
        0x00000dd0:    20000144    D..     DCD    536871236
        0x00000dd4:    74617453    Stat    DCD    1952543827
        0x00000dd8:    30207375    us 0    DCD    807433077
        0x00000ddc:    20782578    x%x     DCD    544744824
        0x00000de0:    4e207369    is N    DCD    1310749545
        0x00000de4:    7020544f    OT p    DCD    1881166927
        0x00000de8:    65636f72    roce    DCD    1701015410
        0x00000dec:    64657373    ssed    DCD    1684370291
        0x00000df0:    0000000a    ....    DCD    10
    $t
    i.I2C_Callback_Tx_Continue
    I2C_Callback_Tx_Continue
        0x00000df4:    b5f8        ..      PUSH     {r3-r7,lr}
        0x00000df6:    2400        .$      MOVS     r4,#0
        0x00000df8:    4e1b        .N      LDR      r6,[pc,#108] ; [0xe68] = 0x40020000
        0x00000dfa:    4d1c        .M      LDR      r5,[pc,#112] ; [0xe6c] = 0x20000054
        0x00000dfc:    2808        .(      CMP      r0,#8
        0x00000dfe:    d00f        ..      BEQ      0xe20 ; I2C_Callback_Tx_Continue + 44
        0x00000e00:    4629        )F      MOV      r1,r5
        0x00000e02:    7949        Iy      LDRB     r1,[r1,#5]
        0x00000e04:    4b1a        .K      LDR      r3,[pc,#104] ; [0xe70] = 0x2000007c
        0x00000e06:    1c4a        J.      ADDS     r2,r1,#1
        0x00000e08:    b2d2        ..      UXTB     r2,r2
        0x00000e0a:    2818        .(      CMP      r0,#0x18
        0x00000e0c:    d01e        ..      BEQ      0xe4c ; I2C_Callback_Tx_Continue + 88
        0x00000e0e:    2820         (      CMP      r0,#0x20
        0x00000e10:    d014        ..      BEQ      0xe3c ; I2C_Callback_Tx_Continue + 72
        0x00000e12:    2828        ((      CMP      r0,#0x28
        0x00000e14:    d017        ..      BEQ      0xe46 ; I2C_Callback_Tx_Continue + 82
        0x00000e16:    4601        .F      MOV      r1,r0
        0x00000e18:    a016        ..      ADR      r0,{pc}+0x5c ; 0xe74
        0x00000e1a:    f000fb63    ..c.    BL       __0printf$5 ; 0x14e4
        0x00000e1e:    bdf8        ..      POP      {r3-r7,pc}
        0x00000e20:    78a8        .x      LDRB     r0,[r5,#2]
        0x00000e22:    0640        @.      LSLS     r0,r0,#25
        0x00000e24:    0e01        ..      LSRS     r1,r0,#24
        0x00000e26:    4630        0F      MOV      r0,r6
        0x00000e28:    f000f888    ....    BL       I2C_SetData ; 0xf3c
        0x00000e2c:    2301        .#      MOVS     r3,#1
        0x00000e2e:    2200        ."      MOVS     r2,#0
        0x00000e30:    4611        .F      MOV      r1,r2
        0x00000e32:    9400        ..      STR      r4,[sp,#0]
        0x00000e34:    4630        0F      MOV      r0,r6
        0x00000e36:    f000f832    ..2.    BL       I2C_Ctrl ; 0xe9e
        0x00000e3a:    bdf8        ..      POP      {r3-r7,pc}
        0x00000e3c:    2301        .#      MOVS     r3,#1
        0x00000e3e:    461a        .F      MOV      r2,r3
        0x00000e40:    4619        .F      MOV      r1,r3
        0x00000e42:    9400        ..      STR      r4,[sp,#0]
        0x00000e44:    e7f6        ..      B        0xe34 ; I2C_Callback_Tx_Continue + 64
        0x00000e46:    79e8        .y      LDRB     r0,[r5,#7]
        0x00000e48:    4281        .B      CMP      r1,r0
        0x00000e4a:    d002        ..      BEQ      0xe52 ; I2C_Callback_Tx_Continue + 94
        0x00000e4c:    5c59        Y\      LDRB     r1,[r3,r1]
        0x00000e4e:    716a        jq      STRB     r2,[r5,#5]
        0x00000e50:    e7e9        ..      B        0xe26 ; I2C_Callback_Tx_Continue + 50
        0x00000e52:    2301        .#      MOVS     r3,#1
        0x00000e54:    461a        .F      MOV      r2,r3
        0x00000e56:    2100        .!      MOVS     r1,#0
        0x00000e58:    4630        0F      MOV      r0,r6
        0x00000e5a:    9400        ..      STR      r4,[sp,#0]
        0x00000e5c:    f000f81f    ....    BL       I2C_Ctrl ; 0xe9e
        0x00000e60:    2001        .       MOVS     r0,#1
        0x00000e62:    7028        (p      STRB     r0,[r5,#0]
        0x00000e64:    bdf8        ..      POP      {r3-r7,pc}
    $d
        0x00000e66:    0000        ..      DCW    0
        0x00000e68:    40020000    ...@    DCD    1073872896
        0x00000e6c:    20000054    T..     DCD    536870996
        0x00000e70:    2000007c    |..     DCD    536871036
        0x00000e74:    74617453    Stat    DCD    1952543827
        0x00000e78:    30207375    us 0    DCD    807433077
        0x00000e7c:    20782578    x%x     DCD    544744824
        0x00000e80:    4e207369    is N    DCD    1310749545
        0x00000e84:    7020544f    OT p    DCD    1881166927
        0x00000e88:    65636f72    roce    DCD    1701015410
        0x00000e8c:    64657373    ssed    DCD    1684370291
        0x00000e90:    0000000a    ....    DCD    10
    $t
    i.I2C_ClearTimeoutFlag
    I2C_ClearTimeoutFlag
        0x00000e94:    6941        Ai      LDR      r1,[r0,#0x14]
        0x00000e96:    2201        ."      MOVS     r2,#1
        0x00000e98:    4311        .C      ORRS     r1,r1,r2
        0x00000e9a:    6141        Aa      STR      r1,[r0,#0x14]
        0x00000e9c:    4770        pG      BX       lr
    i.I2C_Ctrl
    I2C_Ctrl
        0x00000e9e:    b530        0.      PUSH     {r4,r5,lr}
        0x00000ea0:    2400        .$      MOVS     r4,#0
        0x00000ea2:    9d03        ..      LDR      r5,[sp,#0xc]
        0x00000ea4:    2900        .)      CMP      r1,#0
        0x00000ea6:    d000        ..      BEQ      0xeaa ; I2C_Ctrl + 12
        0x00000ea8:    2420         $      MOVS     r4,#0x20
        0x00000eaa:    2a00        .*      CMP      r2,#0
        0x00000eac:    d001        ..      BEQ      0xeb2 ; I2C_Ctrl + 20
        0x00000eae:    2110        .!      MOVS     r1,#0x10
        0x00000eb0:    430c        .C      ORRS     r4,r4,r1
        0x00000eb2:    2b00        .+      CMP      r3,#0
        0x00000eb4:    d001        ..      BEQ      0xeba ; I2C_Ctrl + 28
        0x00000eb6:    2108        .!      MOVS     r1,#8
        0x00000eb8:    430c        .C      ORRS     r4,r4,r1
        0x00000eba:    2d00        .-      CMP      r5,#0
        0x00000ebc:    d001        ..      BEQ      0xec2 ; I2C_Ctrl + 36
        0x00000ebe:    2104        .!      MOVS     r1,#4
        0x00000ec0:    430c        .C      ORRS     r4,r4,r1
        0x00000ec2:    6801        .h      LDR      r1,[r0,#0]
        0x00000ec4:    223c        <"      MOVS     r2,#0x3c
        0x00000ec6:    4391        .C      BICS     r1,r1,r2
        0x00000ec8:    4321        !C      ORRS     r1,r1,r4
        0x00000eca:    6001        .`      STR      r1,[r0,#0]
        0x00000ecc:    bd30        0.      POP      {r4,r5,pc}
    i.I2C_DisableTimeout
    I2C_DisableTimeout
        0x00000ece:    6941        Ai      LDR      r1,[r0,#0x14]
        0x00000ed0:    2204        ."      MOVS     r2,#4
        0x00000ed2:    4391        .C      BICS     r1,r1,r2
        0x00000ed4:    6141        Aa      STR      r1,[r0,#0x14]
        0x00000ed6:    4770        pG      BX       lr
    i.I2C_EnableInt
    I2C_EnableInt
        0x00000ed8:    6801        .h      LDR      r1,[r0,#0]
        0x00000eda:    2280        ."      MOVS     r2,#0x80
        0x00000edc:    4311        .C      ORRS     r1,r1,r2
        0x00000ede:    6001        .`      STR      r1,[r0,#0]
        0x00000ee0:    4770        pG      BX       lr
    i.I2C_EnableTimeout
    I2C_EnableTimeout
        0x00000ee2:    2202        ."      MOVS     r2,#2
        0x00000ee4:    2900        .)      CMP      r1,#0
        0x00000ee6:    6941        Ai      LDR      r1,[r0,#0x14]
        0x00000ee8:    d001        ..      BEQ      0xeee ; I2C_EnableTimeout + 12
        0x00000eea:    4311        .C      ORRS     r1,r1,r2
        0x00000eec:    e000        ..      B        0xef0 ; I2C_EnableTimeout + 14
        0x00000eee:    4391        .C      BICS     r1,r1,r2
        0x00000ef0:    6141        Aa      STR      r1,[r0,#0x14]
        0x00000ef2:    6941        Ai      LDR      r1,[r0,#0x14]
        0x00000ef4:    2204        ."      MOVS     r2,#4
        0x00000ef6:    4311        .C      ORRS     r1,r1,r2
        0x00000ef8:    6141        Aa      STR      r1,[r0,#0x14]
        0x00000efa:    4770        pG      BX       lr
    i.I2C_GetData
    I2C_GetData
        0x00000efc:    6880        .h      LDR      r0,[r0,#8]
        0x00000efe:    b2c0        ..      UXTB     r0,r0
        0x00000f00:    4770        pG      BX       lr
        0x00000f02:    0000        ..      MOVS     r0,r0
    i.I2C_Open
    I2C_Open
        0x00000f04:    b570        p.      PUSH     {r4-r6,lr}
        0x00000f06:    4d0c        .M      LDR      r5,[pc,#48] ; [0xf38] = 0x20000000
        0x00000f08:    4604        .F      MOV      r4,r0
        0x00000f0a:    6828        (h      LDR      r0,[r5,#0]
        0x00000f0c:    220a        ."      MOVS     r2,#0xa
        0x00000f0e:    0089        ..      LSLS     r1,r1,#2
        0x00000f10:    4350        PC      MULS     r0,r2,r0
        0x00000f12:    f7fff931    ..1.    BL       __aeabi_uidiv ; 0x178
        0x00000f16:    210a        .!      MOVS     r1,#0xa
        0x00000f18:    1d40        @.      ADDS     r0,r0,#5
        0x00000f1a:    f7fff92d    ..-.    BL       __aeabi_uidiv ; 0x178
        0x00000f1e:    1e40        @.      SUBS     r0,r0,#1
        0x00000f20:    6120         a      STR      r0,[r4,#0x10]
        0x00000f22:    6821        !h      LDR      r1,[r4,#0]
        0x00000f24:    2240        @"      MOVS     r2,#0x40
        0x00000f26:    4311        .C      ORRS     r1,r1,r2
        0x00000f28:    6021        !`      STR      r1,[r4,#0]
        0x00000f2a:    0081        ..      LSLS     r1,r0,#2
        0x00000f2c:    1d09        ..      ADDS     r1,r1,#4
        0x00000f2e:    6828        (h      LDR      r0,[r5,#0]
        0x00000f30:    f7fff922    ..".    BL       __aeabi_uidiv ; 0x178
        0x00000f34:    bd70        p.      POP      {r4-r6,pc}
    $d
        0x00000f36:    0000        ..      DCW    0
        0x00000f38:    20000000    ...     DCD    536870912
    $t
    i.I2C_SetData
    I2C_SetData
        0x00000f3c:    6081        .`      STR      r1,[r0,#8]
        0x00000f3e:    4770        pG      BX       lr
    i.I2Cdev_readByte
    I2Cdev_readByte
        0x00000f40:    b570        p.      PUSH     {r4-r6,lr}
        0x00000f42:    4614        .F      MOV      r4,r2
        0x00000f44:    460d        .F      MOV      r5,r1
        0x00000f46:    f000f911    ....    BL       NVT_SetDeviceAddress ; 0x116c
        0x00000f4a:    2201        ."      MOVS     r2,#1
        0x00000f4c:    4621        !F      MOV      r1,r4
        0x00000f4e:    4628        (F      MOV      r0,r5
        0x00000f50:    f000f8da    ....    BL       NVT_ReadByteContinue_addr8 ; 0x1108
        0x00000f54:    2001        .       MOVS     r0,#1
        0x00000f56:    bd70        p.      POP      {r4-r6,pc}
    i.I2Cdev_readBytes
    I2Cdev_readBytes
        0x00000f58:    b570        p.      PUSH     {r4-r6,lr}
        0x00000f5a:    461d        .F      MOV      r5,r3
        0x00000f5c:    4614        .F      MOV      r4,r2
        0x00000f5e:    460e        .F      MOV      r6,r1
        0x00000f60:    f000f904    ....    BL       NVT_SetDeviceAddress ; 0x116c
        0x00000f64:    4622        "F      MOV      r2,r4
        0x00000f66:    4629        )F      MOV      r1,r5
        0x00000f68:    4630        0F      MOV      r0,r6
        0x00000f6a:    f000f8cd    ....    BL       NVT_ReadByteContinue_addr8 ; 0x1108
        0x00000f6e:    2800        .(      CMP      r0,#0
        0x00000f70:    d001        ..      BEQ      0xf76 ; I2Cdev_readBytes + 30
        0x00000f72:    2000        .       MOVS     r0,#0
        0x00000f74:    bd70        p.      POP      {r4-r6,pc}
        0x00000f76:    2001        .       MOVS     r0,#1
        0x00000f78:    bd70        p.      POP      {r4-r6,pc}
    i.I2Cdev_writeBit
    I2Cdev_writeBit
        0x00000f7a:    b5f8        ..      PUSH     {r3-r7,lr}
        0x00000f7c:    4615        .F      MOV      r5,r2
        0x00000f7e:    461c        .F      MOV      r4,r3
        0x00000f80:    460e        .F      MOV      r6,r1
        0x00000f82:    4607        .F      MOV      r7,r0
        0x00000f84:    466a        jF      MOV      r2,sp
        0x00000f86:    f7ffffdb    ....    BL       I2Cdev_readByte ; 0xf40
        0x00000f8a:    2001        .       MOVS     r0,#1
        0x00000f8c:    4669        iF      MOV      r1,sp
        0x00000f8e:    40a8        .@      LSLS     r0,r0,r5
        0x00000f90:    7809        .x      LDRB     r1,[r1,#0]
        0x00000f92:    2c00        .,      CMP      r4,#0
        0x00000f94:    d001        ..      BEQ      0xf9a ; I2Cdev_writeBit + 32
        0x00000f96:    4301        .C      ORRS     r1,r1,r0
        0x00000f98:    e000        ..      B        0xf9c ; I2Cdev_writeBit + 34
        0x00000f9a:    4381        .C      BICS     r1,r1,r0
        0x00000f9c:    b2ca        ..      UXTB     r2,r1
        0x00000f9e:    4668        hF      MOV      r0,sp
        0x00000fa0:    7002        .p      STRB     r2,[r0,#0]
        0x00000fa2:    4631        1F      MOV      r1,r6
        0x00000fa4:    4638        8F      MOV      r0,r7
        0x00000fa6:    f000f822    ..".    BL       I2Cdev_writeByte ; 0xfee
        0x00000faa:    bdf8        ..      POP      {r3-r7,pc}
    i.I2Cdev_writeBits
    I2Cdev_writeBits
        0x00000fac:    b5ff        ..      PUSH     {r0-r7,lr}
        0x00000fae:    b081        ..      SUB      sp,sp,#4
        0x00000fb0:    4617        .F      MOV      r7,r2
        0x00000fb2:    461e        .F      MOV      r6,r3
        0x00000fb4:    460c        .F      MOV      r4,r1
        0x00000fb6:    466a        jF      MOV      r2,sp
        0x00000fb8:    9d0a        ..      LDR      r5,[sp,#0x28]
        0x00000fba:    9801        ..      LDR      r0,[sp,#4]
        0x00000fbc:    f7ffffc0    ....    BL       I2Cdev_readByte ; 0xf40
        0x00000fc0:    2800        .(      CMP      r0,#0
        0x00000fc2:    d012        ..      BEQ      0xfea ; I2Cdev_writeBits + 62
        0x00000fc4:    2001        .       MOVS     r0,#1
        0x00000fc6:    40b0        .@      LSLS     r0,r0,r6
        0x00000fc8:    1bba        ..      SUBS     r2,r7,r6
        0x00000fca:    1e40        @.      SUBS     r0,r0,#1
        0x00000fcc:    1c52        R.      ADDS     r2,r2,#1
        0x00000fce:    4090        .@      LSLS     r0,r0,r2
        0x00000fd0:    4095        .@      LSLS     r5,r5,r2
        0x00000fd2:    466b        kF      MOV      r3,sp
        0x00000fd4:    b2c0        ..      UXTB     r0,r0
        0x00000fd6:    781a        .x      LDRB     r2,[r3,#0]
        0x00000fd8:    b2e9        ..      UXTB     r1,r5
        0x00000fda:    4001        .@      ANDS     r1,r1,r0
        0x00000fdc:    4382        .C      BICS     r2,r2,r0
        0x00000fde:    430a        .C      ORRS     r2,r2,r1
        0x00000fe0:    701a        .p      STRB     r2,[r3,#0]
        0x00000fe2:    4621        !F      MOV      r1,r4
        0x00000fe4:    9801        ..      LDR      r0,[sp,#4]
        0x00000fe6:    f000f802    ....    BL       I2Cdev_writeByte ; 0xfee
        0x00000fea:    b005        ..      ADD      sp,sp,#0x14
        0x00000fec:    bdf0        ..      POP      {r4-r7,pc}
    i.I2Cdev_writeByte
    I2Cdev_writeByte
        0x00000fee:    b507        ..      PUSH     {r0-r2,lr}
        0x00000ff0:    ab02        ..      ADD      r3,sp,#8
        0x00000ff2:    2201        ."      MOVS     r2,#1
        0x00000ff4:    f000f801    ....    BL       I2Cdev_writeBytes ; 0xffa
        0x00000ff8:    bd0e        ..      POP      {r1-r3,pc}
    i.I2Cdev_writeBytes
    I2Cdev_writeBytes
        0x00000ffa:    b570        p.      PUSH     {r4-r6,lr}
        0x00000ffc:    461d        .F      MOV      r5,r3
        0x00000ffe:    4614        .F      MOV      r4,r2
        0x00001000:    460e        .F      MOV      r6,r1
        0x00001002:    f000f8b3    ....    BL       NVT_SetDeviceAddress ; 0x116c
        0x00001006:    4622        "F      MOV      r2,r4
        0x00001008:    4629        )F      MOV      r1,r5
        0x0000100a:    4630        0F      MOV      r0,r6
        0x0000100c:    f000f8b6    ....    BL       NVT_WriteByteContinue_addr8 ; 0x117c
        0x00001010:    2001        .       MOVS     r0,#1
        0x00001012:    bd70        p.      POP      {r4-r6,pc}
    i.MPU6050_address
    MPU6050_address
        0x00001014:    4901        .I      LDR      r1,[pc,#4] ; [0x101c] = 0x20000064
        0x00001016:    7008        .p      STRB     r0,[r1,#0]
        0x00001018:    4770        pG      BX       lr
    $d
        0x0000101a:    0000        ..      DCW    0
        0x0000101c:    20000064    d..     DCD    536871012
    $t
    i.MPU6050_getAcceleration
    MPU6050_getAcceleration
        0x00001020:    b570        p.      PUSH     {r4-r6,lr}
        0x00001022:    4606        .F      MOV      r6,r0
        0x00001024:    480f        .H      LDR      r0,[pc,#60] ; [0x1064] = 0x20000064
        0x00001026:    4614        .F      MOV      r4,r2
        0x00001028:    460d        .F      MOV      r5,r1
        0x0000102a:    4b0d        .K      LDR      r3,[pc,#52] ; [0x1060] = 0x2000060c
        0x0000102c:    2206        ."      MOVS     r2,#6
        0x0000102e:    213b        ;!      MOVS     r1,#0x3b
        0x00001030:    7800        .x      LDRB     r0,[r0,#0]
        0x00001032:    f7ffff91    ....    BL       I2Cdev_readBytes ; 0xf58
        0x00001036:    4b0a        .K      LDR      r3,[pc,#40] ; [0x1060] = 0x2000060c
        0x00001038:    7858        Xx      LDRB     r0,[r3,#1]
        0x0000103a:    7819        .x      LDRB     r1,[r3,#0]
        0x0000103c:    0200        ..      LSLS     r0,r0,#8
        0x0000103e:    4308        .C      ORRS     r0,r0,r1
        0x00001040:    ba40        @.      REV16    r0,r0
        0x00001042:    8030        0.      STRH     r0,[r6,#0]
        0x00001044:    78d8        .x      LDRB     r0,[r3,#3]
        0x00001046:    7899        .x      LDRB     r1,[r3,#2]
        0x00001048:    0200        ..      LSLS     r0,r0,#8
        0x0000104a:    4308        .C      ORRS     r0,r0,r1
        0x0000104c:    ba40        @.      REV16    r0,r0
        0x0000104e:    8028        (.      STRH     r0,[r5,#0]
        0x00001050:    7958        Xy      LDRB     r0,[r3,#5]
        0x00001052:    7919        .y      LDRB     r1,[r3,#4]
        0x00001054:    0200        ..      LSLS     r0,r0,#8
        0x00001056:    4308        .C      ORRS     r0,r0,r1
        0x00001058:    ba40        @.      REV16    r0,r0
        0x0000105a:    8020         .      STRH     r0,[r4,#0]
        0x0000105c:    bd70        p.      POP      {r4-r6,pc}
    $d
        0x0000105e:    0000        ..      DCW    0
        0x00001060:    2000060c    ...     DCD    536872460
        0x00001064:    20000064    d..     DCD    536871012
    $t
    i.MPU6050_initialize
    MPU6050_initialize
        0x00001068:    b510        ..      PUSH     {r4,lr}
        0x0000106a:    2001        .       MOVS     r0,#1
        0x0000106c:    f000f80a    ....    BL       MPU6050_setClockSource ; 0x1084
        0x00001070:    2000        .       MOVS     r0,#0
        0x00001072:    f000f81f    ....    BL       MPU6050_setFullScaleGyroRange ; 0x10b4
        0x00001076:    2000        .       MOVS     r0,#0
        0x00001078:    f000f810    ....    BL       MPU6050_setFullScaleAccelRange ; 0x109c
        0x0000107c:    2000        .       MOVS     r0,#0
        0x0000107e:    f000f825    ..%.    BL       MPU6050_setSleepEnabled ; 0x10cc
        0x00001082:    bd10        ..      POP      {r4,pc}
    i.MPU6050_setClockSource
    MPU6050_setClockSource
        0x00001084:    b508        ..      PUSH     {r3,lr}
        0x00001086:    9000        ..      STR      r0,[sp,#0]
        0x00001088:    4803        .H      LDR      r0,[pc,#12] ; [0x1098] = 0x20000064
        0x0000108a:    2303        .#      MOVS     r3,#3
        0x0000108c:    2202        ."      MOVS     r2,#2
        0x0000108e:    216b        k!      MOVS     r1,#0x6b
        0x00001090:    7800        .x      LDRB     r0,[r0,#0]
        0x00001092:    f7ffff8b    ....    BL       I2Cdev_writeBits ; 0xfac
        0x00001096:    bd08        ..      POP      {r3,pc}
    $d
        0x00001098:    20000064    d..     DCD    536871012
    $t
    i.MPU6050_setFullScaleAccelRange
    MPU6050_setFullScaleAccelRange
        0x0000109c:    b508        ..      PUSH     {r3,lr}
        0x0000109e:    9000        ..      STR      r0,[sp,#0]
        0x000010a0:    4803        .H      LDR      r0,[pc,#12] ; [0x10b0] = 0x20000064
        0x000010a2:    2302        .#      MOVS     r3,#2
        0x000010a4:    2204        ."      MOVS     r2,#4
        0x000010a6:    211c        .!      MOVS     r1,#0x1c
        0x000010a8:    7800        .x      LDRB     r0,[r0,#0]
        0x000010aa:    f7ffff7f    ....    BL       I2Cdev_writeBits ; 0xfac
        0x000010ae:    bd08        ..      POP      {r3,pc}
    $d
        0x000010b0:    20000064    d..     DCD    536871012
    $t
    i.MPU6050_setFullScaleGyroRange
    MPU6050_setFullScaleGyroRange
        0x000010b4:    b508        ..      PUSH     {r3,lr}
        0x000010b6:    9000        ..      STR      r0,[sp,#0]
        0x000010b8:    4803        .H      LDR      r0,[pc,#12] ; [0x10c8] = 0x20000064
        0x000010ba:    2302        .#      MOVS     r3,#2
        0x000010bc:    2204        ."      MOVS     r2,#4
        0x000010be:    211b        .!      MOVS     r1,#0x1b
        0x000010c0:    7800        .x      LDRB     r0,[r0,#0]
        0x000010c2:    f7ffff73    ..s.    BL       I2Cdev_writeBits ; 0xfac
        0x000010c6:    bd08        ..      POP      {r3,pc}
    $d
        0x000010c8:    20000064    d..     DCD    536871012
    $t
    i.MPU6050_setSleepEnabled
    MPU6050_setSleepEnabled
        0x000010cc:    4603        .F      MOV      r3,r0
        0x000010ce:    b510        ..      PUSH     {r4,lr}
        0x000010d0:    4803        .H      LDR      r0,[pc,#12] ; [0x10e0] = 0x20000064
        0x000010d2:    2206        ."      MOVS     r2,#6
        0x000010d4:    216b        k!      MOVS     r1,#0x6b
        0x000010d6:    7800        .x      LDRB     r0,[r0,#0]
        0x000010d8:    f7ffff4f    ..O.    BL       I2Cdev_writeBit ; 0xf7a
        0x000010dc:    bd10        ..      POP      {r4,pc}
    $d
        0x000010de:    0000        ..      DCW    0
        0x000010e0:    20000064    d..     DCD    536871012
    $t
    i.NVT_I2C_Init
    NVT_I2C_Init
        0x000010e4:    b510        ..      PUSH     {r4,lr}
        0x000010e6:    4c06        .L      LDR      r4,[pc,#24] ; [0x1100] = 0x40020000
        0x000010e8:    4601        .F      MOV      r1,r0
        0x000010ea:    4620         F      MOV      r0,r4
        0x000010ec:    f7ffff0a    ....    BL       I2C_Open ; 0xf04
        0x000010f0:    4620         F      MOV      r0,r4
        0x000010f2:    f7fffef1    ....    BL       I2C_EnableInt ; 0xed8
        0x000010f6:    2001        .       MOVS     r0,#1
        0x000010f8:    4902        .I      LDR      r1,[pc,#8] ; [0x1104] = 0xe000e100
        0x000010fa:    0480        ..      LSLS     r0,r0,#18
        0x000010fc:    6008        .`      STR      r0,[r1,#0]
        0x000010fe:    bd10        ..      POP      {r4,pc}
    $d
        0x00001100:    40020000    ...@    DCD    1073872896
        0x00001104:    e000e100    ....    DCD    3758153984
    $t
    i.NVT_ReadByteContinue_addr8
    NVT_ReadByteContinue_addr8
        0x00001108:    b5f8        ..      PUSH     {r3-r7,lr}
        0x0000110a:    460e        .F      MOV      r6,r1
        0x0000110c:    4c13        .L      LDR      r4,[pc,#76] ; [0x115c] = 0x20000054
        0x0000110e:    2100        .!      MOVS     r1,#0
        0x00001110:    71a1        .q      STRB     r1,[r4,#6]
        0x00001112:    7161        aq      STRB     r1,[r4,#5]
        0x00001114:    4615        .F      MOV      r5,r2
        0x00001116:    7021        !p      STRB     r1,[r4,#0]
        0x00001118:    7121        !q      STRB     r1,[r4,#4]
        0x0000111a:    7061        ap      STRB     r1,[r4,#1]
        0x0000111c:    71e2        .q      STRB     r2,[r4,#7]
        0x0000111e:    4a10        .J      LDR      r2,[pc,#64] ; [0x1160] = 0x2000007c
        0x00001120:    7010        .p      STRB     r0,[r2,#0]
        0x00001122:    4810        .H      LDR      r0,[pc,#64] ; [0x1164] = 0xcf1
        0x00001124:    60a0        .`      STR      r0,[r4,#8]
        0x00001126:    60e0        .`      STR      r0,[r4,#0xc]
        0x00001128:    480f        .H      LDR      r0,[pc,#60] ; [0x1168] = 0x40020000
        0x0000112a:    6802        .h      LDR      r2,[r0,#0]
        0x0000112c:    06d2        ..      LSLS     r2,r2,#27
        0x0000112e:    d4fc        ..      BMI      0x112a ; NVT_ReadByteContinue_addr8 + 34
        0x00001130:    2300        .#      MOVS     r3,#0
        0x00001132:    9100        ..      STR      r1,[sp,#0]
        0x00001134:    461a        .F      MOV      r2,r3
        0x00001136:    2101        .!      MOVS     r1,#1
        0x00001138:    f7fffeb1    ....    BL       I2C_Ctrl ; 0xe9e
        0x0000113c:    2000        .       MOVS     r0,#0
        0x0000113e:    f000f9b9    ....    BL       WaitEndFlag0 ; 0x14b4
        0x00001142:    4907        .I      LDR      r1,[pc,#28] ; [0x1160] = 0x2000007c
        0x00001144:    2000        .       MOVS     r0,#0
        0x00001146:    31c8        .1      ADDS     r1,r1,#0xc8
        0x00001148:    e003        ..      B        0x1152 ; NVT_ReadByteContinue_addr8 + 74
        0x0000114a:    5c0a        .\      LDRB     r2,[r1,r0]
        0x0000114c:    5432        2T      STRB     r2,[r6,r0]
        0x0000114e:    1c40        @.      ADDS     r0,r0,#1
        0x00001150:    b2c0        ..      UXTB     r0,r0
        0x00001152:    42a8        .B      CMP      r0,r5
        0x00001154:    d3f9        ..      BCC      0x114a ; NVT_ReadByteContinue_addr8 + 66
        0x00001156:    7860        `x      LDRB     r0,[r4,#1]
        0x00001158:    bdf8        ..      POP      {r3-r7,pc}
    $d
        0x0000115a:    0000        ..      DCW    0
        0x0000115c:    20000054    T..     DCD    536870996
        0x00001160:    2000007c    |..     DCD    536871036
        0x00001164:    00000cf1    ....    DCD    3313
        0x00001168:    40020000    ...@    DCD    1073872896
    $t
    i.NVT_SetDeviceAddress
    NVT_SetDeviceAddress
        0x0000116c:    4902        .I      LDR      r1,[pc,#8] ; [0x1178] = 0x20000054
        0x0000116e:    7088        .p      STRB     r0,[r1,#2]
        0x00001170:    1c40        @.      ADDS     r0,r0,#1
        0x00001172:    70c8        .p      STRB     r0,[r1,#3]
        0x00001174:    4770        pG      BX       lr
    $d
        0x00001176:    0000        ..      DCW    0
        0x00001178:    20000054    T..     DCD    536870996
    $t
    i.NVT_WriteByteContinue_addr8
    NVT_WriteByteContinue_addr8
        0x0000117c:    b538        8.      PUSH     {r3-r5,lr}
        0x0000117e:    4b12        .K      LDR      r3,[pc,#72] ; [0x11c8] = 0x2000007c
        0x00001180:    7018        .p      STRB     r0,[r3,#0]
        0x00001182:    2000        .       MOVS     r0,#0
        0x00001184:    e004        ..      B        0x1190 ; NVT_WriteByteContinue_addr8 + 20
        0x00001186:    5c0c        .\      LDRB     r4,[r1,r0]
        0x00001188:    181d        ..      ADDS     r5,r3,r0
        0x0000118a:    1c40        @.      ADDS     r0,r0,#1
        0x0000118c:    706c        lp      STRB     r4,[r5,#1]
        0x0000118e:    b2c0        ..      UXTB     r0,r0
        0x00001190:    4290        .B      CMP      r0,r2
        0x00001192:    d3f8        ..      BCC      0x1186 ; NVT_WriteByteContinue_addr8 + 10
        0x00001194:    4c0d        .L      LDR      r4,[pc,#52] ; [0x11cc] = 0x20000054
        0x00001196:    2300        .#      MOVS     r3,#0
        0x00001198:    7163        cq      STRB     r3,[r4,#5]
        0x0000119a:    7023        #p      STRB     r3,[r4,#0]
        0x0000119c:    7063        cp      STRB     r3,[r4,#1]
        0x0000119e:    1c52        R.      ADDS     r2,r2,#1
        0x000011a0:    71e2        .q      STRB     r2,[r4,#7]
        0x000011a2:    480b        .H      LDR      r0,[pc,#44] ; [0x11d0] = 0xdf5
        0x000011a4:    60a0        .`      STR      r0,[r4,#8]
        0x000011a6:    60e0        .`      STR      r0,[r4,#0xc]
        0x000011a8:    480a        .H      LDR      r0,[pc,#40] ; [0x11d4] = 0x40020000
        0x000011aa:    6801        .h      LDR      r1,[r0,#0]
        0x000011ac:    06c9        ..      LSLS     r1,r1,#27
        0x000011ae:    d4fc        ..      BMI      0x11aa ; NVT_WriteByteContinue_addr8 + 46
        0x000011b0:    9300        ..      STR      r3,[sp,#0]
        0x000011b2:    2300        .#      MOVS     r3,#0
        0x000011b4:    461a        .F      MOV      r2,r3
        0x000011b6:    2101        .!      MOVS     r1,#1
        0x000011b8:    f7fffe71    ..q.    BL       I2C_Ctrl ; 0xe9e
        0x000011bc:    2001        .       MOVS     r0,#1
        0x000011be:    f000f979    ..y.    BL       WaitEndFlag0 ; 0x14b4
        0x000011c2:    7860        `x      LDRB     r0,[r4,#1]
        0x000011c4:    bd38        8.      POP      {r3-r5,pc}
    $d
        0x000011c6:    0000        ..      DCW    0
        0x000011c8:    2000007c    |..     DCD    536871036
        0x000011cc:    20000054    T..     DCD    536870996
        0x000011d0:    00000df5    ....    DCD    3573
        0x000011d4:    40020000    ...@    DCD    1073872896
    $t
    i.SPI_DisableAutoSS
    SPI_DisableAutoSS
        0x000011d8:    6881        .h      LDR      r1,[r0,#8]
        0x000011da:    220b        ."      MOVS     r2,#0xb
        0x000011dc:    4391        .C      BICS     r1,r1,r2
        0x000011de:    6081        .`      STR      r1,[r0,#8]
        0x000011e0:    4770        pG      BX       lr
        0x000011e2:    0000        ..      MOVS     r0,r0
    i.SPI_Open
    SPI_Open
        0x000011e4:    b5f8        ..      PUSH     {r3-r7,lr}
        0x000011e6:    460d        .F      MOV      r5,r1
        0x000011e8:    4604        .F      MOV      r4,r0
        0x000011ea:    2b20         +      CMP      r3,#0x20
        0x000011ec:    d100        ..      BNE      0x11f0 ; SPI_Open + 12
        0x000011ee:    2300        .#      MOVS     r3,#0
        0x000011f0:    00d8        ..      LSLS     r0,r3,#3
        0x000011f2:    4328        (C      ORRS     r0,r0,r5
        0x000011f4:    4310        .C      ORRS     r0,r0,r2
        0x000011f6:    6020         `      STR      r0,[r4,#0]
        0x000011f8:    6be0        .k      LDR      r0,[r4,#0x3c]
        0x000011fa:    2101        .!      MOVS     r1,#1
        0x000011fc:    07c9        ..      LSLS     r1,r1,#31
        0x000011fe:    4308        .C      ORRS     r0,r0,r1
        0x00001200:    63e0        .c      STR      r0,[r4,#0x3c]
        0x00001202:    f7fffc0f    ....    BL       CLK_GetHCLKFreq ; 0xa24
        0x00001206:    2100        .!      MOVS     r1,#0
        0x00001208:    4a4d        MJ      LDR      r2,[pc,#308] ; [0x1340] = 0x40030000
        0x0000120a:    4e4e        NN      LDR      r6,[pc,#312] ; [0x1344] = 0x50000200
        0x0000120c:    4607        .F      MOV      r7,r0
        0x0000120e:    2d00        .-      CMP      r5,#0
        0x00001210:    d005        ..      BEQ      0x121e ; SPI_Open + 58
        0x00001212:    2010        .       MOVS     r0,#0x10
        0x00001214:    60a0        .`      STR      r0,[r4,#8]
        0x00001216:    4294        .B      CMP      r4,r2
        0x00001218:    d17d        }.      BNE      0x1316 ; SPI_Open + 306
        0x0000121a:    6972        ri      LDR      r2,[r6,#0x14]
        0x0000121c:    e08b        ..      B        0x1336 ; SPI_Open + 338
        0x0000121e:    2000        .       MOVS     r0,#0
        0x00001220:    60a0        .`      STR      r0,[r4,#8]
        0x00001222:    4847        GH      LDR      r0,[pc,#284] ; [0x1340] = 0x40030000
        0x00001224:    4284        .B      CMP      r4,r0
        0x00001226:    d102        ..      BNE      0x122e ; SPI_Open + 74
        0x00001228:    6970        pi      LDR      r0,[r6,#0x14]
        0x0000122a:    06c0        ..      LSLS     r0,r0,#27
        0x0000122c:    e004        ..      B        0x1238 ; SPI_Open + 84
        0x0000122e:    4846        FH      LDR      r0,[pc,#280] ; [0x1348] = 0x40034000
        0x00001230:    4284        .B      CMP      r4,r0
        0x00001232:    d105        ..      BNE      0x1240 ; SPI_Open + 92
        0x00001234:    6970        pi      LDR      r0,[r6,#0x14]
        0x00001236:    0680        ..      LSLS     r0,r0,#26
        0x00001238:    2800        .(      CMP      r0,#0
        0x0000123a:    da09        ..      BGE      0x1250 ; SPI_Open + 108
        0x0000123c:    463d        =F      MOV      r5,r7
        0x0000123e:    e00a        ..      B        0x1256 ; SPI_Open + 114
        0x00001240:    4842        BH      LDR      r0,[pc,#264] ; [0x134c] = 0x40130000
        0x00001242:    4284        .B      CMP      r4,r0
        0x00001244:    6970        pi      LDR      r0,[r6,#0x14]
        0x00001246:    d101        ..      BNE      0x124c ; SPI_Open + 104
        0x00001248:    0640        @.      LSLS     r0,r0,#25
        0x0000124a:    e7f5        ..      B        0x1238 ; SPI_Open + 84
        0x0000124c:    0600        ..      LSLS     r0,r0,#24
        0x0000124e:    e7f3        ..      B        0x1238 ; SPI_Open + 84
        0x00001250:    f7fffbf0    ....    BL       CLK_GetPLLClockFreq ; 0xa34
        0x00001254:    4605        .F      MOV      r5,r0
        0x00001256:    9806        ..      LDR      r0,[sp,#0x18]
        0x00001258:    42b8        .B      CMP      r0,r7
        0x0000125a:    d317        ..      BCC      0x128c ; SPI_Open + 168
        0x0000125c:    4838        8H      LDR      r0,[pc,#224] ; [0x1340] = 0x40030000
        0x0000125e:    4284        .B      CMP      r4,r0
        0x00001260:    d102        ..      BNE      0x1268 ; SPI_Open + 132
        0x00001262:    6970        pi      LDR      r0,[r6,#0x14]
        0x00001264:    2110        .!      MOVS     r1,#0x10
        0x00001266:    e00c        ..      B        0x1282 ; SPI_Open + 158
        0x00001268:    4837        7H      LDR      r0,[pc,#220] ; [0x1348] = 0x40034000
        0x0000126a:    4284        .B      CMP      r4,r0
        0x0000126c:    d102        ..      BNE      0x1274 ; SPI_Open + 144
        0x0000126e:    6970        pi      LDR      r0,[r6,#0x14]
        0x00001270:    2120         !      MOVS     r1,#0x20
        0x00001272:    e006        ..      B        0x1282 ; SPI_Open + 158
        0x00001274:    4835        5H      LDR      r0,[pc,#212] ; [0x134c] = 0x40130000
        0x00001276:    4284        .B      CMP      r4,r0
        0x00001278:    6970        pi      LDR      r0,[r6,#0x14]
        0x0000127a:    d101        ..      BNE      0x1280 ; SPI_Open + 156
        0x0000127c:    2140        @!      MOVS     r1,#0x40
        0x0000127e:    e000        ..      B        0x1282 ; SPI_Open + 158
        0x00001280:    2180        .!      MOVS     r1,#0x80
        0x00001282:    4308        .C      ORRS     r0,r0,r1
        0x00001284:    6170        pa      STR      r0,[r6,#0x14]
        0x00001286:    2000        .       MOVS     r0,#0
        0x00001288:    6060        ``      STR      r0,[r4,#4]
        0x0000128a:    e057        W.      B        0x133c ; SPI_Open + 344
        0x0000128c:    42a8        .B      CMP      r0,r5
        0x0000128e:    d303        ..      BCC      0x1298 ; SPI_Open + 180
        0x00001290:    2000        .       MOVS     r0,#0
        0x00001292:    6060        ``      STR      r0,[r4,#4]
        0x00001294:    4628        (F      MOV      r0,r5
        0x00001296:    bdf8        ..      POP      {r3-r7,pc}
        0x00001298:    2800        .(      CMP      r0,#0
        0x0000129a:    d029        ).      BEQ      0x12f0 ; SPI_Open + 268
        0x0000129c:    4628        (F      MOV      r0,r5
        0x0000129e:    210a        .!      MOVS     r1,#0xa
        0x000012a0:    4348        HC      MULS     r0,r1,r0
        0x000012a2:    4606        .F      MOV      r6,r0
        0x000012a4:    9906        ..      LDR      r1,[sp,#0x18]
        0x000012a6:    f7feff67    ..g.    BL       __aeabi_uidiv ; 0x178
        0x000012aa:    210a        .!      MOVS     r1,#0xa
        0x000012ac:    1d40        @.      ADDS     r0,r0,#5
        0x000012ae:    f7feff63    ..c.    BL       __aeabi_uidiv ; 0x178
        0x000012b2:    1e40        @.      SUBS     r0,r0,#1
        0x000012b4:    28ff        .(      CMP      r0,#0xff
        0x000012b6:    d926        &.      BLS      0x1306 ; SPI_Open + 290
        0x000012b8:    6be0        .k      LDR      r0,[r4,#0x3c]
        0x000012ba:    0040        @.      LSLS     r0,r0,#1
        0x000012bc:    0840        @.      LSRS     r0,r0,#1
        0x000012be:    63e0        .c      STR      r0,[r4,#0x3c]
        0x000012c0:    9806        ..      LDR      r0,[sp,#0x18]
        0x000012c2:    0041        A.      LSLS     r1,r0,#1
        0x000012c4:    4630        0F      MOV      r0,r6
        0x000012c6:    f7feff57    ..W.    BL       __aeabi_uidiv ; 0x178
        0x000012ca:    210a        .!      MOVS     r1,#0xa
        0x000012cc:    1d40        @.      ADDS     r0,r0,#5
        0x000012ce:    f7feff53    ..S.    BL       __aeabi_uidiv ; 0x178
        0x000012d2:    1e40        @.      SUBS     r0,r0,#1
        0x000012d4:    28ff        .(      CMP      r0,#0xff
        0x000012d6:    d900        ..      BLS      0x12da ; SPI_Open + 246
        0x000012d8:    20ff        .       MOVS     r0,#0xff
        0x000012da:    6861        ah      LDR      r1,[r4,#4]
        0x000012dc:    0a09        ..      LSRS     r1,r1,#8
        0x000012de:    0209        ..      LSLS     r1,r1,#8
        0x000012e0:    4301        .C      ORRS     r1,r1,r0
        0x000012e2:    6061        a`      STR      r1,[r4,#4]
        0x000012e4:    0041        A.      LSLS     r1,r0,#1
        0x000012e6:    4628        (F      MOV      r0,r5
        0x000012e8:    1c89        ..      ADDS     r1,r1,#2
        0x000012ea:    f7feff45    ..E.    BL       __aeabi_uidiv ; 0x178
        0x000012ee:    bdf8        ..      POP      {r3-r7,pc}
        0x000012f0:    6be0        .k      LDR      r0,[r4,#0x3c]
        0x000012f2:    0040        @.      LSLS     r0,r0,#1
        0x000012f4:    0840        @.      LSRS     r0,r0,#1
        0x000012f6:    63e0        .c      STR      r0,[r4,#0x3c]
        0x000012f8:    6860        `h      LDR      r0,[r4,#4]
        0x000012fa:    21ff        .!      MOVS     r1,#0xff
        0x000012fc:    4308        .C      ORRS     r0,r0,r1
        0x000012fe:    6060        ``      STR      r0,[r4,#4]
        0x00001300:    0a68        h.      LSRS     r0,r5,#9
        0x00001302:    bdf8        ..      POP      {r3-r7,pc}
        0x00001304:    e007        ..      B        0x1316 ; SPI_Open + 306
        0x00001306:    6861        ah      LDR      r1,[r4,#4]
        0x00001308:    0a09        ..      LSRS     r1,r1,#8
        0x0000130a:    0209        ..      LSLS     r1,r1,#8
        0x0000130c:    4301        .C      ORRS     r1,r1,r0
        0x0000130e:    6061        a`      STR      r1,[r4,#4]
        0x00001310:    1c41        A.      ADDS     r1,r0,#1
        0x00001312:    4628        (F      MOV      r0,r5
        0x00001314:    e7e9        ..      B        0x12ea ; SPI_Open + 262
        0x00001316:    480c        .H      LDR      r0,[pc,#48] ; [0x1348] = 0x40034000
        0x00001318:    4284        .B      CMP      r4,r0
        0x0000131a:    d102        ..      BNE      0x1322 ; SPI_Open + 318
        0x0000131c:    6970        pi      LDR      r0,[r6,#0x14]
        0x0000131e:    2220         "      MOVS     r2,#0x20
        0x00001320:    e004        ..      B        0x132c ; SPI_Open + 328
        0x00001322:    480a        .H      LDR      r0,[pc,#40] ; [0x134c] = 0x40130000
        0x00001324:    4284        .B      CMP      r4,r0
        0x00001326:    d104        ..      BNE      0x1332 ; SPI_Open + 334
        0x00001328:    6970        pi      LDR      r0,[r6,#0x14]
        0x0000132a:    2240        @"      MOVS     r2,#0x40
        0x0000132c:    4310        .C      ORRS     r0,r0,r2
        0x0000132e:    6170        pa      STR      r0,[r6,#0x14]
        0x00001330:    e003        ..      B        0x133a ; SPI_Open + 342
        0x00001332:    6972        ri      LDR      r2,[r6,#0x14]
        0x00001334:    2080        .       MOVS     r0,#0x80
        0x00001336:    4302        .C      ORRS     r2,r2,r0
        0x00001338:    6172        ra      STR      r2,[r6,#0x14]
        0x0000133a:    6061        a`      STR      r1,[r4,#4]
        0x0000133c:    4638        8F      MOV      r0,r7
        0x0000133e:    e7e0        ..      B        0x1302 ; SPI_Open + 286
    $d
        0x00001340:    40030000    ...@    DCD    1073938432
        0x00001344:    50000200    ...P    DCD    1342177792
        0x00001348:    40034000    .@.@    DCD    1073954816
        0x0000134c:    40130000    ...@    DCD    1074987008
    $t
    i.SYS_Init
    SYS_Init
        0x00001350:    b570        p.      PUSH     {r4-r6,lr}
        0x00001352:    2059        Y       MOVS     r0,#0x59
        0x00001354:    2116        .!      MOVS     r1,#0x16
        0x00001356:    4c20         L      LDR      r4,[pc,#128] ; [0x13d8] = 0x50000100
        0x00001358:    2288        ."      MOVS     r2,#0x88
        0x0000135a:    e002        ..      B        0x1362 ; SYS_Init + 18
        0x0000135c:    6020         `      STR      r0,[r4,#0]
        0x0000135e:    6021        !`      STR      r1,[r4,#0]
        0x00001360:    6022        "`      STR      r2,[r4,#0]
        0x00001362:    6823        #h      LDR      r3,[r4,#0]
        0x00001364:    2b01        .+      CMP      r3,#1
        0x00001366:    d1f9        ..      BNE      0x135c ; SYS_Init + 12
        0x00001368:    2001        .       MOVS     r0,#1
        0x0000136a:    f7fffb53    ..S.    BL       CLK_EnableXtalRC ; 0xa14
        0x0000136e:    2001        .       MOVS     r0,#1
        0x00001370:    f7fffc52    ..R.    BL       CLK_WaitClockReady ; 0xc18
        0x00001374:    4819        .H      LDR      r0,[pc,#100] ; [0x13dc] = 0x2faf080
        0x00001376:    f7fffb89    ....    BL       CLK_SetCoreClock ; 0xa8c
        0x0000137a:    4d19        .M      LDR      r5,[pc,#100] ; [0x13e0] = 0x40000008
        0x0000137c:    4628        (F      MOV      r0,r5
        0x0000137e:    f7fffa65    ..e.    BL       CLK_EnableModuleClock ; 0x84c
        0x00001382:    2200        ."      MOVS     r2,#0
        0x00001384:    4611        .F      MOV      r1,r2
        0x00001386:    4628        (F      MOV      r0,r5
        0x00001388:    f7fffbe0    ....    BL       CLK_SetModuleClock ; 0xb4c
        0x0000138c:    4d15        .M      LDR      r5,[pc,#84] ; [0x13e4] = 0x5270000f
        0x0000138e:    4628        (F      MOV      r0,r5
        0x00001390:    f7fffa5c    ..\.    BL       CLK_EnableModuleClock ; 0x84c
        0x00001394:    2200        ."      MOVS     r2,#0
        0x00001396:    2180        .!      MOVS     r1,#0x80
        0x00001398:    4628        (F      MOV      r0,r5
        0x0000139a:    f7fffbd7    ....    BL       CLK_SetModuleClock ; 0xb4c
        0x0000139e:    2005        .       MOVS     r0,#5
        0x000013a0:    0700        ..      LSLS     r0,r0,#28
        0x000013a2:    6b01        .k      LDR      r1,[r0,#0x30]
        0x000013a4:    2301        .#      MOVS     r3,#1
        0x000013a6:    025b        [.      LSLS     r3,r3,#9
        0x000013a8:    4319        .C      ORRS     r1,r1,r3
        0x000013aa:    6301        .c      STR      r1,[r0,#0x30]
        0x000013ac:    6b01        .k      LDR      r1,[r0,#0x30]
        0x000013ae:    105a        Z.      ASRS     r2,r3,#1
        0x000013b0:    4311        .C      ORRS     r1,r1,r2
        0x000013b2:    6301        .c      STR      r1,[r0,#0x30]
        0x000013b4:    6bc1        .k      LDR      r1,[r0,#0x3c]
        0x000013b6:    4311        .C      ORRS     r1,r1,r2
        0x000013b8:    63c1        .c      STR      r1,[r0,#0x3c]
        0x000013ba:    6bc1        .k      LDR      r1,[r0,#0x3c]
        0x000013bc:    4319        .C      ORRS     r1,r1,r3
        0x000013be:    63c1        .c      STR      r1,[r0,#0x3c]
        0x000013c0:    6bc1        .k      LDR      r1,[r0,#0x3c]
        0x000013c2:    0092        ..      LSLS     r2,r2,#2
        0x000013c4:    4311        .C      ORRS     r1,r1,r2
        0x000013c6:    63c1        .c      STR      r1,[r0,#0x3c]
        0x000013c8:    6bc1        .k      LDR      r1,[r0,#0x3c]
        0x000013ca:    0052        R.      LSLS     r2,r2,#1
        0x000013cc:    4311        .C      ORRS     r1,r1,r2
        0x000013ce:    63c1        .c      STR      r1,[r0,#0x3c]
        0x000013d0:    2000        .       MOVS     r0,#0
        0x000013d2:    6020         `      STR      r0,[r4,#0]
        0x000013d4:    bd70        p.      POP      {r4-r6,pc}
    $d
        0x000013d6:    0000        ..      DCW    0
        0x000013d8:    50000100    ...P    DCD    1342177536
        0x000013dc:    02faf080    ....    DCD    50000000
        0x000013e0:    40000008    ...@    DCD    1073741832
        0x000013e4:    5270000f    ..pR    DCD    1383071759
    $t
    i.SendChar
    SendChar
        0x000013e8:    b570        p.      PUSH     {r4-r6,lr}
        0x000013ea:    4c0c        .L      LDR      r4,[pc,#48] ; [0x141c] = 0x2000002c
        0x000013ec:    4a0a        .J      LDR      r2,[pc,#40] ; [0x1418] = 0x2000006c
        0x000013ee:    7821        !x      LDRB     r1,[r4,#0]
        0x000013f0:    2500        .%      MOVS     r5,#0
        0x000013f2:    5450        PT      STRB     r0,[r2,r1]
        0x000013f4:    1c49        I.      ADDS     r1,r1,#1
        0x000013f6:    b2c9        ..      UXTB     r1,r1
        0x000013f8:    7021        !p      STRB     r1,[r4,#0]
        0x000013fa:    5455        UT      STRB     r5,[r2,r1]
        0x000013fc:    1c49        I.      ADDS     r1,r1,#1
        0x000013fe:    2910        .)      CMP      r1,#0x10
        0x00001400:    d203        ..      BCS      0x140a ; SendChar + 34
        0x00001402:    280a        .(      CMP      r0,#0xa
        0x00001404:    d001        ..      BEQ      0x140a ; SendChar + 34
        0x00001406:    2800        .(      CMP      r0,#0
        0x00001408:    d105        ..      BNE      0x1416 ; SendChar + 46
        0x0000140a:    2200        ."      MOVS     r2,#0
        0x0000140c:    4902        .I      LDR      r1,[pc,#8] ; [0x1418] = 0x2000006c
        0x0000140e:    2004        .       MOVS     r0,#4
        0x00001410:    f7fefe82    ....    BL       SH_DoCommand ; 0x118
        0x00001414:    7025        %p      STRB     r5,[r4,#0]
        0x00001416:    bd70        p.      POP      {r4-r6,pc}
    $d
        0x00001418:    2000006c    l..     DCD    536871020
        0x0000141c:    2000002c    ,..     DCD    536870956
    $t
    i.SystemCoreClockUpdate
    SystemCoreClockUpdate
        0x00001420:    b538        8.      PUSH     {r3-r5,lr}
        0x00001422:    a01d        ..      ADR      r0,{pc}+0x76 ; 0x1498
        0x00001424:    6800        .h      LDR      r0,[r0,#0]
        0x00001426:    4c1d        .L      LDR      r4,[pc,#116] ; [0x149c] = 0x50000200
        0x00001428:    9000        ..      STR      r0,[sp,#0]
        0x0000142a:    6a21        !j      LDR      r1,[r4,#0x20]
        0x0000142c:    1320         .      ASRS     r0,r4,#12
        0x0000142e:    4201        .B      TST      r1,r0
        0x00001430:    d001        ..      BEQ      0x1436 ; SystemCoreClockUpdate + 22
        0x00001432:    2000        .       MOVS     r0,#0
        0x00001434:    e016        ..      B        0x1464 ; SystemCoreClockUpdate + 68
        0x00001436:    0308        ..      LSLS     r0,r1,#12
        0x00001438:    d501        ..      BPL      0x143e ; SystemCoreClockUpdate + 30
        0x0000143a:    4819        .H      LDR      r0,[pc,#100] ; [0x14a0] = 0x1518000
        0x0000143c:    e000        ..      B        0x1440 ; SystemCoreClockUpdate + 32
        0x0000143e:    4819        .H      LDR      r0,[pc,#100] ; [0x14a4] = 0xb71b00
        0x00001440:    038a        ..      LSLS     r2,r1,#14
        0x00001442:    d40f        ..      BMI      0x1464 ; SystemCoreClockUpdate + 68
        0x00001444:    040a        ..      LSLS     r2,r1,#16
        0x00001446:    0f92        ..      LSRS     r2,r2,#30
        0x00001448:    466b        kF      MOV      r3,sp
        0x0000144a:    5c9b        .\      LDRB     r3,[r3,r2]
        0x0000144c:    05ca        ..      LSLS     r2,r1,#23
        0x0000144e:    0489        ..      LSLS     r1,r1,#18
        0x00001450:    0dd2        ..      LSRS     r2,r2,#23
        0x00001452:    0ec9        ..      LSRS     r1,r1,#27
        0x00001454:    1c89        ..      ADDS     r1,r1,#2
        0x00001456:    0880        ..      LSRS     r0,r0,#2
        0x00001458:    1c92        ..      ADDS     r2,r2,#2
        0x0000145a:    4359        YC      MULS     r1,r3,r1
        0x0000145c:    4350        PC      MULS     r0,r2,r0
        0x0000145e:    f7fefe8b    ....    BL       __aeabi_uidiv ; 0x178
        0x00001462:    0080        ..      LSLS     r0,r0,#2
        0x00001464:    4d10        .M      LDR      r5,[pc,#64] ; [0x14a8] = 0x20000000
        0x00001466:    60a8        .`      STR      r0,[r5,#8]
        0x00001468:    6921        !i      LDR      r1,[r4,#0x10]
        0x0000146a:    0749        I.      LSLS     r1,r1,#29
        0x0000146c:    0f49        I.      LSRS     r1,r1,#29
        0x0000146e:    2902        .)      CMP      r1,#2
        0x00001470:    d003        ..      BEQ      0x147a ; SystemCoreClockUpdate + 90
        0x00001472:    0088        ..      LSLS     r0,r1,#2
        0x00001474:    4629        )F      MOV      r1,r5
        0x00001476:    310c        .1      ADDS     r1,r1,#0xc
        0x00001478:    5808        .X      LDR      r0,[r1,r0]
        0x0000147a:    69a1        .i      LDR      r1,[r4,#0x18]
        0x0000147c:    0709        ..      LSLS     r1,r1,#28
        0x0000147e:    0f09        ..      LSRS     r1,r1,#28
        0x00001480:    1c49        I.      ADDS     r1,r1,#1
        0x00001482:    f7fefe79    ..y.    BL       __aeabi_uidiv ; 0x178
        0x00001486:    4909        .I      LDR      r1,[pc,#36] ; [0x14ac] = 0xf4240
        0x00001488:    6028        (`      STR      r0,[r5,#0]
        0x0000148a:    104a        J.      ASRS     r2,r1,#1
        0x0000148c:    1880        ..      ADDS     r0,r0,r2
        0x0000148e:    f7fefe73    ..s.    BL       __aeabi_uidiv ; 0x178
        0x00001492:    6068        h`      STR      r0,[r5,#4]
        0x00001494:    bd38        8.      POP      {r3-r5,pc}
    $d
        0x00001496:    0000        ..      DCW    0
        0x00001498:    04020201    ....    DCD    67240449
        0x0000149c:    50000200    ...P    DCD    1342177792
        0x000014a0:    01518000    ..Q.    DCD    22118400
        0x000014a4:    00b71b00    ....    DCD    12000000
        0x000014a8:    20000000    ...     DCD    536870912
        0x000014ac:    000f4240    @B..    DCD    1000000
    $t
    i.SystemInit
    SystemInit
        0x000014b0:    4770        pG      BX       lr
        0x000014b2:    0000        ..      MOVS     r0,r0
    i.WaitEndFlag0
    WaitEndFlag0
        0x000014b4:    b570        p.      PUSH     {r4-r6,lr}
        0x000014b6:    4d09        .M      LDR      r5,[pc,#36] ; [0x14dc] = 0x40020000
        0x000014b8:    4c09        .L      LDR      r4,[pc,#36] ; [0x14e0] = 0x20000054
        0x000014ba:    2800        .(      CMP      r0,#0
        0x000014bc:    d007        ..      BEQ      0x14ce ; WaitEndFlag0 + 26
        0x000014be:    b2c1        ..      UXTB     r1,r0
        0x000014c0:    4628        (F      MOV      r0,r5
        0x000014c2:    f7fffd0e    ....    BL       I2C_EnableTimeout ; 0xee2
        0x000014c6:    e002        ..      B        0x14ce ; WaitEndFlag0 + 26
        0x000014c8:    7860        `x      LDRB     r0,[r4,#1]
        0x000014ca:    2800        .(      CMP      r0,#0
        0x000014cc:    d102        ..      BNE      0x14d4 ; WaitEndFlag0 + 32
        0x000014ce:    7821        !x      LDRB     r1,[r4,#0]
        0x000014d0:    2900        .)      CMP      r1,#0
        0x000014d2:    d0f9        ..      BEQ      0x14c8 ; WaitEndFlag0 + 20
        0x000014d4:    4628        (F      MOV      r0,r5
        0x000014d6:    f7fffcfa    ....    BL       I2C_DisableTimeout ; 0xece
        0x000014da:    bd70        p.      POP      {r4-r6,pc}
    $d
        0x000014dc:    40020000    ...@    DCD    1073872896
        0x000014e0:    20000054    T..     DCD    536870996
    $t
    i.__0printf$5
    __0printf$5
    __1printf$5
    __2printf
        0x000014e4:    b40f        ..      PUSH     {r0-r3}
        0x000014e6:    b510        ..      PUSH     {r4,lr}
        0x000014e8:    a903        ..      ADD      r1,sp,#0xc
        0x000014ea:    4b04        .K      LDR      r3,[pc,#16] ; [0x14fc] = 0x1c95
        0x000014ec:    4a04        .J      LDR      r2,[pc,#16] ; [0x1500] = 0x20000030
        0x000014ee:    9802        ..      LDR      r0,[sp,#8]
        0x000014f0:    f000f8d2    ....    BL       _printf_core ; 0x1698
        0x000014f4:    bc10        ..      POP      {r4}
        0x000014f6:    bc08        ..      POP      {r3}
        0x000014f8:    b004        ..      ADD      sp,sp,#0x10
        0x000014fa:    4718        .G      BX       r3
    $d
        0x000014fc:    00001c95    ....    DCD    7317
        0x00001500:    20000030    0..     DCD    536870960
    $t
    i.__ARM_clz
    __ARM_clz
        0x00001504:    2120         !      MOVS     r1,#0x20
        0x00001506:    0c02        ..      LSRS     r2,r0,#16
        0x00001508:    d001        ..      BEQ      0x150e ; __ARM_clz + 10
        0x0000150a:    2110        .!      MOVS     r1,#0x10
        0x0000150c:    4610        .F      MOV      r0,r2
        0x0000150e:    0a02        ..      LSRS     r2,r0,#8
        0x00001510:    d001        ..      BEQ      0x1516 ; __ARM_clz + 18
        0x00001512:    4610        .F      MOV      r0,r2
        0x00001514:    3908        .9      SUBS     r1,r1,#8
        0x00001516:    0902        ..      LSRS     r2,r0,#4
        0x00001518:    d001        ..      BEQ      0x151e ; __ARM_clz + 26
        0x0000151a:    4610        .F      MOV      r0,r2
        0x0000151c:    1f09        ..      SUBS     r1,r1,#4
        0x0000151e:    0882        ..      LSRS     r2,r0,#2
        0x00001520:    d001        ..      BEQ      0x1526 ; __ARM_clz + 34
        0x00001522:    4610        .F      MOV      r0,r2
        0x00001524:    1e89        ..      SUBS     r1,r1,#2
        0x00001526:    0842        B.      LSRS     r2,r0,#1
        0x00001528:    d001        ..      BEQ      0x152e ; __ARM_clz + 42
        0x0000152a:    1e88        ..      SUBS     r0,r1,#2
        0x0000152c:    4770        pG      BX       lr
        0x0000152e:    1a08        ..      SUBS     r0,r1,r0
        0x00001530:    4770        pG      BX       lr
        0x00001532:    0000        ..      MOVS     r0,r0
    i.__ARM_fpclassify
    __ARM_fpclassify
        0x00001534:    0049        I.      LSLS     r1,r1,#1
        0x00001536:    02ca        ..      LSLS     r2,r1,#11
        0x00001538:    4302        .C      ORRS     r2,r2,r0
        0x0000153a:    0010        ..      MOVS     r0,r2
        0x0000153c:    d000        ..      BEQ      0x1540 ; __ARM_fpclassify + 12
        0x0000153e:    2004        .       MOVS     r0,#4
        0x00001540:    0d4a        J.      LSRS     r2,r1,#21
        0x00001542:    d001        ..      BEQ      0x1548 ; __ARM_fpclassify + 20
        0x00001544:    2201        ."      MOVS     r2,#1
        0x00001546:    4310        .C      ORRS     r0,r0,r2
        0x00001548:    4a04        .J      LDR      r2,[pc,#16] ; [0x155c] = 0x7ff
        0x0000154a:    0d49        I.      LSRS     r1,r1,#21
        0x0000154c:    4291        .B      CMP      r1,r2
        0x0000154e:    d101        ..      BNE      0x1554 ; __ARM_fpclassify + 32
        0x00001550:    2102        .!      MOVS     r1,#2
        0x00001552:    4308        .C      ORRS     r0,r0,r1
        0x00001554:    2801        .(      CMP      r0,#1
        0x00001556:    d100        ..      BNE      0x155a ; __ARM_fpclassify + 38
        0x00001558:    2005        .       MOVS     r0,#5
        0x0000155a:    4770        pG      BX       lr
    $d
        0x0000155c:    000007ff    ....    DCD    2047
    $t
    i.__kernel_poly
    __kernel_poly
        0x00001560:    b5f8        ..      PUSH     {r3-r7,lr}
        0x00001562:    4604        .F      MOV      r4,r0
        0x00001564:    1e4f        O.      SUBS     r7,r1,#1
        0x00001566:    00c8        ..      LSLS     r0,r1,#3
        0x00001568:    3808        .8      SUBS     r0,r0,#8
        0x0000156a:    1821        !.      ADDS     r1,r4,r0
        0x0000156c:    4615        .F      MOV      r5,r2
        0x0000156e:    461e        .F      MOV      r6,r3
        0x00001570:    6808        .h      LDR      r0,[r1,#0]
        0x00001572:    6849        Ih      LDR      r1,[r1,#4]
        0x00001574:    463a        :F      MOV      r2,r7
        0x00001576:    2306        .#      MOVS     r3,#6
        0x00001578:    439a        .C      BICS     r2,r2,r3
        0x0000157a:    d010        ..      BEQ      0x159e ; __kernel_poly + 62
        0x0000157c:    462a        *F      MOV      r2,r5
        0x0000157e:    4633        3F      MOV      r3,r6
        0x00001580:    f7fefec2    ....    BL       __aeabi_dmul ; 0x308
        0x00001584:    463a        :F      MOV      r2,r7
        0x00001586:    00d2        ..      LSLS     r2,r2,#3
        0x00001588:    3a08        .:      SUBS     r2,r2,#8
        0x0000158a:    18a3        ..      ADDS     r3,r4,r2
        0x0000158c:    681a        .h      LDR      r2,[r3,#0]
        0x0000158e:    1e7f        ..      SUBS     r7,r7,#1
        0x00001590:    685b        [h      LDR      r3,[r3,#4]
        0x00001592:    f7fefe07    ....    BL       __aeabi_dadd ; 0x1a4
        0x00001596:    2206        ."      MOVS     r2,#6
        0x00001598:    463b        ;F      MOV      r3,r7
        0x0000159a:    4393        .C      BICS     r3,r3,r2
        0x0000159c:    d1ee        ..      BNE      0x157c ; __kernel_poly + 28
        0x0000159e:    2f02        ./      CMP      r7,#2
        0x000015a0:    d023        #.      BEQ      0x15ea ; __kernel_poly + 138
        0x000015a2:    2f04        ./      CMP      r7,#4
        0x000015a4:    d011        ..      BEQ      0x15ca ; __kernel_poly + 106
        0x000015a6:    2f06        ./      CMP      r7,#6
        0x000015a8:    d12f        /.      BNE      0x160a ; __kernel_poly + 170
        0x000015aa:    462a        *F      MOV      r2,r5
        0x000015ac:    4633        3F      MOV      r3,r6
        0x000015ae:    f7fefeab    ....    BL       __aeabi_dmul ; 0x308
        0x000015b2:    6ae3        .j      LDR      r3,[r4,#0x2c]
        0x000015b4:    6aa2        .j      LDR      r2,[r4,#0x28]
        0x000015b6:    f7fefdf5    ....    BL       __aeabi_dadd ; 0x1a4
        0x000015ba:    462a        *F      MOV      r2,r5
        0x000015bc:    4633        3F      MOV      r3,r6
        0x000015be:    f7fefea3    ....    BL       __aeabi_dmul ; 0x308
        0x000015c2:    6a63        cj      LDR      r3,[r4,#0x24]
        0x000015c4:    6a22        "j      LDR      r2,[r4,#0x20]
        0x000015c6:    f7fefded    ....    BL       __aeabi_dadd ; 0x1a4
        0x000015ca:    462a        *F      MOV      r2,r5
        0x000015cc:    4633        3F      MOV      r3,r6
        0x000015ce:    f7fefe9b    ....    BL       __aeabi_dmul ; 0x308
        0x000015d2:    69e3        .i      LDR      r3,[r4,#0x1c]
        0x000015d4:    69a2        .i      LDR      r2,[r4,#0x18]
        0x000015d6:    f7fefde5    ....    BL       __aeabi_dadd ; 0x1a4
        0x000015da:    462a        *F      MOV      r2,r5
        0x000015dc:    4633        3F      MOV      r3,r6
        0x000015de:    f7fefe93    ....    BL       __aeabi_dmul ; 0x308
        0x000015e2:    6963        ci      LDR      r3,[r4,#0x14]
        0x000015e4:    6922        "i      LDR      r2,[r4,#0x10]
        0x000015e6:    f7fefddd    ....    BL       __aeabi_dadd ; 0x1a4
        0x000015ea:    462a        *F      MOV      r2,r5
        0x000015ec:    4633        3F      MOV      r3,r6
        0x000015ee:    f7fefe8b    ....    BL       __aeabi_dmul ; 0x308
        0x000015f2:    68e3        .h      LDR      r3,[r4,#0xc]
        0x000015f4:    68a2        .h      LDR      r2,[r4,#8]
        0x000015f6:    f7fefdd5    ....    BL       __aeabi_dadd ; 0x1a4
        0x000015fa:    462a        *F      MOV      r2,r5
        0x000015fc:    4633        3F      MOV      r3,r6
        0x000015fe:    f7fefe83    ....    BL       __aeabi_dmul ; 0x308
        0x00001602:    6863        ch      LDR      r3,[r4,#4]
        0x00001604:    6822        "h      LDR      r2,[r4,#0]
        0x00001606:    f7fefdcd    ....    BL       __aeabi_dadd ; 0x1a4
        0x0000160a:    bdf8        ..      POP      {r3-r7,pc}
    i.__mathlib_dbl_divzero
    __mathlib_dbl_divzero
        0x0000160c:    2200        ."      MOVS     r2,#0
        0x0000160e:    b510        ..      PUSH     {r4,lr}
        0x00001610:    4613        .F      MOV      r3,r2
        0x00001612:    4610        .F      MOV      r0,r2
        0x00001614:    4901        .I      LDR      r1,[pc,#4] ; [0x161c] = 0x3ff00000
        0x00001616:    f7fefedf    ....    BL       __aeabi_ddiv ; 0x3d8
        0x0000161a:    bd10        ..      POP      {r4,pc}
    $d
        0x0000161c:    3ff00000    ...?    DCD    1072693248
    $t
    i.__mathlib_dbl_infnan
    __mathlib_dbl_infnan
        0x00001620:    b510        ..      PUSH     {r4,lr}
        0x00001622:    2201        ."      MOVS     r2,#1
        0x00001624:    f7fff873    ..s.    BL       __ARM_scalbn ; 0x70e
        0x00001628:    bd10        ..      POP      {r4,pc}
    i.__mathlib_dbl_infnan2
    __mathlib_dbl_infnan2
        0x0000162a:    b510        ..      PUSH     {r4,lr}
        0x0000162c:    f7fefdba    ....    BL       __aeabi_dadd ; 0x1a4
        0x00001630:    bd10        ..      POP      {r4,pc}
    i.__mathlib_dbl_invalid
    __mathlib_dbl_invalid
        0x00001632:    2200        ."      MOVS     r2,#0
        0x00001634:    b510        ..      PUSH     {r4,lr}
        0x00001636:    4613        .F      MOV      r3,r2
        0x00001638:    4610        .F      MOV      r0,r2
        0x0000163a:    4611        .F      MOV      r1,r2
        0x0000163c:    f7fefecc    ....    BL       __aeabi_ddiv ; 0x3d8
        0x00001640:    bd10        ..      POP      {r4,pc}
        0x00001642:    0000        ..      MOVS     r0,r0
    i.__mathlib_dbl_overflow
    __mathlib_dbl_overflow
        0x00001644:    b510        ..      PUSH     {r4,lr}
        0x00001646:    2107        .!      MOVS     r1,#7
        0x00001648:    4a02        .J      LDR      r2,[pc,#8] ; [0x1654] = 0x301
        0x0000164a:    2000        .       MOVS     r0,#0
        0x0000164c:    0709        ..      LSLS     r1,r1,#28
        0x0000164e:    f7fff85e    ..^.    BL       __ARM_scalbn ; 0x70e
        0x00001652:    bd10        ..      POP      {r4,pc}
    $d
        0x00001654:    00000301    ....    DCD    769
    $t
    i.__mathlib_dbl_underflow
    __mathlib_dbl_underflow
        0x00001658:    4a03        .J      LDR      r2,[pc,#12] ; [0x1668] = 0xfffffd01
        0x0000165a:    b510        ..      PUSH     {r4,lr}
        0x0000165c:    2000        .       MOVS     r0,#0
        0x0000165e:    0711        ..      LSLS     r1,r2,#28
        0x00001660:    f7fff855    ..U.    BL       __ARM_scalbn ; 0x70e
        0x00001664:    bd10        ..      POP      {r4,pc}
    $d
        0x00001666:    0000        ..      DCW    0
        0x00001668:    fffffd01    ....    DCD    4294966529
    $t
    i.__scatterload_copy
    __scatterload_copy
        0x0000166c:    e002        ..      B        0x1674 ; __scatterload_copy + 8
        0x0000166e:    c808        ..      LDM      r0!,{r3}
        0x00001670:    1f12        ..      SUBS     r2,r2,#4
        0x00001672:    c108        ..      STM      r1!,{r3}
        0x00001674:    2a00        .*      CMP      r2,#0
        0x00001676:    d1fa        ..      BNE      0x166e ; __scatterload_copy + 2
        0x00001678:    4770        pG      BX       lr
    i.__scatterload_null
    __scatterload_null
        0x0000167a:    4770        pG      BX       lr
    i.__scatterload_zeroinit
    __scatterload_zeroinit
        0x0000167c:    2000        .       MOVS     r0,#0
        0x0000167e:    e001        ..      B        0x1684 ; __scatterload_zeroinit + 8
        0x00001680:    c101        ..      STM      r1!,{r0}
        0x00001682:    1f12        ..      SUBS     r2,r2,#4
        0x00001684:    2a00        .*      CMP      r2,#0
        0x00001686:    d1fb        ..      BNE      0x1680 ; __scatterload_zeroinit + 4
        0x00001688:    4770        pG      BX       lr
        0x0000168a:    0000        ..      MOVS     r0,r0
    i.__set_errno
    __set_errno
        0x0000168c:    4901        .I      LDR      r1,[pc,#4] ; [0x1694] = 0x20000068
        0x0000168e:    6008        .`      STR      r0,[r1,#0]
        0x00001690:    4770        pG      BX       lr
    $d
        0x00001692:    0000        ..      DCW    0
        0x00001694:    20000068    h..     DCD    536871016
    $t
    i._printf_core
    _printf_core
        0x00001698:    b5ff        ..      PUSH     {r0-r7,lr}
        0x0000169a:    b08f        ..      SUB      sp,sp,#0x3c
        0x0000169c:    460f        .F      MOV      r7,r1
        0x0000169e:    4604        .F      MOV      r4,r0
        0x000016a0:    2600        .&      MOVS     r6,#0
        0x000016a2:    e006        ..      B        0x16b2 ; _printf_core + 26
        0x000016a4:    2825        %(      CMP      r0,#0x25
        0x000016a6:    d00a        ..      BEQ      0x16be ; _printf_core + 38
        0x000016a8:    9a12        ..      LDR      r2,[sp,#0x48]
        0x000016aa:    9911        ..      LDR      r1,[sp,#0x44]
        0x000016ac:    4790        .G      BLX      r2
        0x000016ae:    1c64        d.      ADDS     r4,r4,#1
        0x000016b0:    1c76        v.      ADDS     r6,r6,#1
        0x000016b2:    7820         x      LDRB     r0,[r4,#0]
        0x000016b4:    2800        .(      CMP      r0,#0
        0x000016b6:    d1f5        ..      BNE      0x16a4 ; _printf_core + 12
        0x000016b8:    4630        0F      MOV      r0,r6
        0x000016ba:    b013        ..      ADD      sp,sp,#0x4c
        0x000016bc:    bdf0        ..      POP      {r4-r7,pc}
        0x000016be:    2500        .%      MOVS     r5,#0
        0x000016c0:    2101        .!      MOVS     r1,#1
        0x000016c2:    4aa1        .J      LDR      r2,[pc,#644] ; [0x1948] = 0x12809
        0x000016c4:    9500        ..      STR      r5,[sp,#0]
        0x000016c6:    e000        ..      B        0x16ca ; _printf_core + 50
        0x000016c8:    4305        .C      ORRS     r5,r5,r0
        0x000016ca:    1c64        d.      ADDS     r4,r4,#1
        0x000016cc:    7823        #x      LDRB     r3,[r4,#0]
        0x000016ce:    4608        .F      MOV      r0,r1
        0x000016d0:    3b20         ;      SUBS     r3,r3,#0x20
        0x000016d2:    4098        .@      LSLS     r0,r0,r3
        0x000016d4:    4210        .B      TST      r0,r2
        0x000016d6:    d1f7        ..      BNE      0x16c8 ; _printf_core + 48
        0x000016d8:    7820         x      LDRB     r0,[r4,#0]
        0x000016da:    282e        .(      CMP      r0,#0x2e
        0x000016dc:    d115        ..      BNE      0x170a ; _printf_core + 114
        0x000016de:    2004        .       MOVS     r0,#4
        0x000016e0:    4305        .C      ORRS     r5,r5,r0
        0x000016e2:    7860        `x      LDRB     r0,[r4,#1]
        0x000016e4:    1c64        d.      ADDS     r4,r4,#1
        0x000016e6:    282a        *(      CMP      r0,#0x2a
        0x000016e8:    d10a        ..      BNE      0x1700 ; _printf_core + 104
        0x000016ea:    cf01        ..      LDM      r7!,{r0}
        0x000016ec:    1c64        d.      ADDS     r4,r4,#1
        0x000016ee:    9000        ..      STR      r0,[sp,#0]
        0x000016f0:    e00b        ..      B        0x170a ; _printf_core + 114
        0x000016f2:    9900        ..      LDR      r1,[sp,#0]
        0x000016f4:    220a        ."      MOVS     r2,#0xa
        0x000016f6:    4351        QC      MULS     r1,r2,r1
        0x000016f8:    3930        09      SUBS     r1,r1,#0x30
        0x000016fa:    1840        @.      ADDS     r0,r0,r1
        0x000016fc:    1c64        d.      ADDS     r4,r4,#1
        0x000016fe:    9000        ..      STR      r0,[sp,#0]
        0x00001700:    7820         x      LDRB     r0,[r4,#0]
        0x00001702:    4601        .F      MOV      r1,r0
        0x00001704:    3930        09      SUBS     r1,r1,#0x30
        0x00001706:    2909        .)      CMP      r1,#9
        0x00001708:    d9f3        ..      BLS      0x16f2 ; _printf_core + 90
        0x0000170a:    7820         x      LDRB     r0,[r4,#0]
        0x0000170c:    286c        l(      CMP      r0,#0x6c
        0x0000170e:    d00e        ..      BEQ      0x172e ; _printf_core + 150
        0x00001710:    dc04        ..      BGT      0x171c ; _printf_core + 132
        0x00001712:    284c        L(      CMP      r0,#0x4c
        0x00001714:    d013        ..      BEQ      0x173e ; _printf_core + 166
        0x00001716:    286a        j(      CMP      r0,#0x6a
        0x00001718:    d112        ..      BNE      0x1740 ; _printf_core + 168
        0x0000171a:    e004        ..      B        0x1726 ; _printf_core + 142
        0x0000171c:    2874        t(      CMP      r0,#0x74
        0x0000171e:    d00e        ..      BEQ      0x173e ; _printf_core + 166
        0x00001720:    287a        z(      CMP      r0,#0x7a
        0x00001722:    d10d        ..      BNE      0x1740 ; _printf_core + 168
        0x00001724:    e00b        ..      B        0x173e ; _printf_core + 166
        0x00001726:    2001        .       MOVS     r0,#1
        0x00001728:    0540        @.      LSLS     r0,r0,#21
        0x0000172a:    4305        .C      ORRS     r5,r5,r0
        0x0000172c:    e007        ..      B        0x173e ; _printf_core + 166
        0x0000172e:    2101        .!      MOVS     r1,#1
        0x00001730:    0509        ..      LSLS     r1,r1,#20
        0x00001732:    7862        bx      LDRB     r2,[r4,#1]
        0x00001734:    430d        .C      ORRS     r5,r5,r1
        0x00001736:    4282        .B      CMP      r2,r0
        0x00001738:    d101        ..      BNE      0x173e ; _printf_core + 166
        0x0000173a:    186d        m.      ADDS     r5,r5,r1
        0x0000173c:    1c64        d.      ADDS     r4,r4,#1
        0x0000173e:    1c64        d.      ADDS     r4,r4,#1
        0x00001740:    7820         x      LDRB     r0,[r4,#0]
        0x00001742:    4686        .F      MOV      lr,r0
        0x00001744:    2869        i(      CMP      r0,#0x69
        0x00001746:    d04a        J.      BEQ      0x17de ; _printf_core + 326
        0x00001748:    dc08        ..      BGT      0x175c ; _printf_core + 196
        0x0000174a:    2800        .(      CMP      r0,#0
        0x0000174c:    d0b4        ..      BEQ      0x16b8 ; _printf_core + 32
        0x0000174e:    2858        X(      CMP      r0,#0x58
        0x00001750:    d06d        m.      BEQ      0x182e ; _printf_core + 406
        0x00001752:    2863        c(      CMP      r0,#0x63
        0x00001754:    d010        ..      BEQ      0x1778 ; _printf_core + 224
        0x00001756:    2864        d(      CMP      r0,#0x64
        0x00001758:    d108        ..      BNE      0x176c ; _printf_core + 212
        0x0000175a:    e040        @.      B        0x17de ; _printf_core + 326
        0x0000175c:    2870        p(      CMP      r0,#0x70
        0x0000175e:    d06b        k.      BEQ      0x1838 ; _printf_core + 416
        0x00001760:    2873        s(      CMP      r0,#0x73
        0x00001762:    d012        ..      BEQ      0x178a ; _printf_core + 242
        0x00001764:    2875        u(      CMP      r0,#0x75
        0x00001766:    d060        `.      BEQ      0x182a ; _printf_core + 402
        0x00001768:    2878        x(      CMP      r0,#0x78
        0x0000176a:    d060        `.      BEQ      0x182e ; _printf_core + 406
        0x0000176c:    9a12        ..      LDR      r2,[sp,#0x48]
        0x0000176e:    4670        pF      MOV      r0,lr
        0x00001770:    9911        ..      LDR      r1,[sp,#0x44]
        0x00001772:    4790        .G      BLX      r2
        0x00001774:    1c76        v.      ADDS     r6,r6,#1
        0x00001776:    e0e5        ..      B        0x1944 ; _printf_core + 684
        0x00001778:    7838        8x      LDRB     r0,[r7,#0]
        0x0000177a:    4669        iF      MOV      r1,sp
        0x0000177c:    7208        .r      STRB     r0,[r1,#8]
        0x0000177e:    2000        .       MOVS     r0,#0
        0x00001780:    7248        Hr      STRB     r0,[r1,#9]
        0x00001782:    a802        ..      ADD      r0,sp,#8
        0x00001784:    9001        ..      STR      r0,[sp,#4]
        0x00001786:    2001        .       MOVS     r0,#1
        0x00001788:    e003        ..      B        0x1792 ; _printf_core + 250
        0x0000178a:    6838        8h      LDR      r0,[r7,#0]
        0x0000178c:    9001        ..      STR      r0,[sp,#4]
        0x0000178e:    2000        .       MOVS     r0,#0
        0x00001790:    43c0        .C      MVNS     r0,r0
        0x00001792:    1d3f        ?.      ADDS     r7,r7,#4
        0x00001794:    0769        i.      LSLS     r1,r5,#29
        0x00001796:    d50c        ..      BPL      0x17b2 ; _printf_core + 282
        0x00001798:    2500        .%      MOVS     r5,#0
        0x0000179a:    e000        ..      B        0x179e ; _printf_core + 262
        0x0000179c:    1c6d        m.      ADDS     r5,r5,#1
        0x0000179e:    9900        ..      LDR      r1,[sp,#0]
        0x000017a0:    428d        .B      CMP      r5,r1
        0x000017a2:    da0f        ..      BGE      0x17c4 ; _printf_core + 300
        0x000017a4:    4285        .B      CMP      r5,r0
        0x000017a6:    dbf9        ..      BLT      0x179c ; _printf_core + 260
        0x000017a8:    9901        ..      LDR      r1,[sp,#4]
        0x000017aa:    5d49        I]      LDRB     r1,[r1,r5]
        0x000017ac:    2900        .)      CMP      r1,#0
        0x000017ae:    d1f5        ..      BNE      0x179c ; _printf_core + 260
        0x000017b0:    e008        ..      B        0x17c4 ; _printf_core + 300
        0x000017b2:    2500        .%      MOVS     r5,#0
        0x000017b4:    e000        ..      B        0x17b8 ; _printf_core + 288
        0x000017b6:    1c6d        m.      ADDS     r5,r5,#1
        0x000017b8:    4285        .B      CMP      r5,r0
        0x000017ba:    dbfc        ..      BLT      0x17b6 ; _printf_core + 286
        0x000017bc:    9901        ..      LDR      r1,[sp,#4]
        0x000017be:    5d49        I]      LDRB     r1,[r1,r5]
        0x000017c0:    2900        .)      CMP      r1,#0
        0x000017c2:    d1f8        ..      BNE      0x17b6 ; _printf_core + 286
        0x000017c4:    1976        v.      ADDS     r6,r6,r5
        0x000017c6:    e007        ..      B        0x17d8 ; _printf_core + 320
        0x000017c8:    9801        ..      LDR      r0,[sp,#4]
        0x000017ca:    9901        ..      LDR      r1,[sp,#4]
        0x000017cc:    7800        .x      LDRB     r0,[r0,#0]
        0x000017ce:    1c49        I.      ADDS     r1,r1,#1
        0x000017d0:    9101        ..      STR      r1,[sp,#4]
        0x000017d2:    9a12        ..      LDR      r2,[sp,#0x48]
        0x000017d4:    9911        ..      LDR      r1,[sp,#0x44]
        0x000017d6:    4790        .G      BLX      r2
        0x000017d8:    1e6d        m.      SUBS     r5,r5,#1
        0x000017da:    d2f5        ..      BCS      0x17c8 ; _printf_core + 304
        0x000017dc:    e0b2        ..      B        0x1944 ; _printf_core + 684
        0x000017de:    200a        .       MOVS     r0,#0xa
        0x000017e0:    9002        ..      STR      r0,[sp,#8]
        0x000017e2:    2100        .!      MOVS     r1,#0
        0x000017e4:    0268        h.      LSLS     r0,r5,#9
        0x000017e6:    0f40        @.      LSRS     r0,r0,#29
        0x000017e8:    9103        ..      STR      r1,[sp,#0xc]
        0x000017ea:    2802        .(      CMP      r0,#2
        0x000017ec:    d00c        ..      BEQ      0x1808 ; _printf_core + 368
        0x000017ee:    cf01        ..      LDM      r7!,{r0}
        0x000017f0:    17c1        ..      ASRS     r1,r0,#31
        0x000017f2:    4684        .F      MOV      r12,r0
        0x000017f4:    2900        .)      CMP      r1,#0
        0x000017f6:    da0d        ..      BGE      0x1814 ; _printf_core + 380
        0x000017f8:    4662        bF      MOV      r2,r12
        0x000017fa:    4608        .F      MOV      r0,r1
        0x000017fc:    4252        RB      RSBS     r2,r2,#0
        0x000017fe:    2100        .!      MOVS     r1,#0
        0x00001800:    4181        .A      SBCS     r1,r1,r0
        0x00001802:    4694        .F      MOV      r12,r2
        0x00001804:    202d        -       MOVS     r0,#0x2d
        0x00001806:    e008        ..      B        0x181a ; _printf_core + 386
        0x00001808:    1dff        ..      ADDS     r7,r7,#7
        0x0000180a:    08ff        ..      LSRS     r7,r7,#3
        0x0000180c:    00ff        ..      LSLS     r7,r7,#3
        0x0000180e:    cf03        ..      LDM      r7!,{r0,r1}
        0x00001810:    4684        .F      MOV      r12,r0
        0x00001812:    e7ef        ..      B        0x17f4 ; _printf_core + 348
        0x00001814:    0528        (.      LSLS     r0,r5,#20
        0x00001816:    d504        ..      BPL      0x1822 ; _printf_core + 394
        0x00001818:    202b        +       MOVS     r0,#0x2b
        0x0000181a:    466a        jF      MOV      r2,sp
        0x0000181c:    7410        .t      STRB     r0,[r2,#0x10]
        0x0000181e:    2001        .       MOVS     r0,#1
        0x00001820:    e03c        <.      B        0x189c ; _printf_core + 516
        0x00001822:    07e8        ..      LSLS     r0,r5,#31
        0x00001824:    d03a        :.      BEQ      0x189c ; _printf_core + 516
        0x00001826:    2020                MOVS     r0,#0x20
        0x00001828:    e7f7        ..      B        0x181a ; _printf_core + 386
        0x0000182a:    200a        .       MOVS     r0,#0xa
        0x0000182c:    e000        ..      B        0x1830 ; _printf_core + 408
        0x0000182e:    2010        .       MOVS     r0,#0x10
        0x00001830:    2100        .!      MOVS     r1,#0
        0x00001832:    9103        ..      STR      r1,[sp,#0xc]
        0x00001834:    9002        ..      STR      r0,[sp,#8]
        0x00001836:    e007        ..      B        0x1848 ; _printf_core + 432
        0x00001838:    2010        .       MOVS     r0,#0x10
        0x0000183a:    9002        ..      STR      r0,[sp,#8]
        0x0000183c:    2100        .!      MOVS     r1,#0
        0x0000183e:    2004        .       MOVS     r0,#4
        0x00001840:    4305        .C      ORRS     r5,r5,r0
        0x00001842:    2008        .       MOVS     r0,#8
        0x00001844:    9103        ..      STR      r1,[sp,#0xc]
        0x00001846:    9000        ..      STR      r0,[sp,#0]
        0x00001848:    0268        h.      LSLS     r0,r5,#9
        0x0000184a:    0f40        @.      LSRS     r0,r0,#29
        0x0000184c:    2802        .(      CMP      r0,#2
        0x0000184e:    d010        ..      BEQ      0x1872 ; _printf_core + 474
        0x00001850:    cf01        ..      LDM      r7!,{r0}
        0x00001852:    2100        .!      MOVS     r1,#0
        0x00001854:    4684        .F      MOV      r12,r0
        0x00001856:    2000        .       MOVS     r0,#0
        0x00001858:    900d        ..      STR      r0,[sp,#0x34]
        0x0000185a:    0728        (.      LSLS     r0,r5,#28
        0x0000185c:    d51f        ..      BPL      0x189e ; _printf_core + 518
        0x0000185e:    4670        pF      MOV      r0,lr
        0x00001860:    2870        p(      CMP      r0,#0x70
        0x00001862:    d00c        ..      BEQ      0x187e ; _printf_core + 486
        0x00001864:    9a02        ..      LDR      r2,[sp,#8]
        0x00001866:    2010        .       MOVS     r0,#0x10
        0x00001868:    9b03        ..      LDR      r3,[sp,#0xc]
        0x0000186a:    4042        B@      EORS     r2,r2,r0
        0x0000186c:    431a        .C      ORRS     r2,r2,r3
        0x0000186e:    d00c        ..      BEQ      0x188a ; _printf_core + 498
        0x00001870:    e015        ..      B        0x189e ; _printf_core + 518
        0x00001872:    1dff        ..      ADDS     r7,r7,#7
        0x00001874:    08ff        ..      LSRS     r7,r7,#3
        0x00001876:    00ff        ..      LSLS     r7,r7,#3
        0x00001878:    cf03        ..      LDM      r7!,{r0,r1}
        0x0000187a:    4684        .F      MOV      r12,r0
        0x0000187c:    e7eb        ..      B        0x1856 ; _printf_core + 446
        0x0000187e:    2040        @       MOVS     r0,#0x40
        0x00001880:    466a        jF      MOV      r2,sp
        0x00001882:    7410        .t      STRB     r0,[r2,#0x10]
        0x00001884:    2001        .       MOVS     r0,#1
        0x00001886:    900d        ..      STR      r0,[sp,#0x34]
        0x00001888:    e00c        ..      B        0x18a4 ; _printf_core + 524
        0x0000188a:    4660        `F      MOV      r0,r12
        0x0000188c:    4308        .C      ORRS     r0,r0,r1
        0x0000188e:    d006        ..      BEQ      0x189e ; _printf_core + 518
        0x00001890:    2030        0       MOVS     r0,#0x30
        0x00001892:    466a        jF      MOV      r2,sp
        0x00001894:    7410        .t      STRB     r0,[r2,#0x10]
        0x00001896:    4670        pF      MOV      r0,lr
        0x00001898:    7450        Pt      STRB     r0,[r2,#0x11]
        0x0000189a:    2002        .       MOVS     r0,#2
        0x0000189c:    900d        ..      STR      r0,[sp,#0x34]
        0x0000189e:    4670        pF      MOV      r0,lr
        0x000018a0:    2858        X(      CMP      r0,#0x58
        0x000018a2:    d004        ..      BEQ      0x18ae ; _printf_core + 534
        0x000018a4:    a029        ).      ADR      r0,{pc}+0xa8 ; 0x194c
        0x000018a6:    9001        ..      STR      r0,[sp,#4]
        0x000018a8:    a80d        ..      ADD      r0,sp,#0x34
        0x000018aa:    900e        ..      STR      r0,[sp,#0x38]
        0x000018ac:    e00d        ..      B        0x18ca ; _printf_core + 562
        0x000018ae:    a02c        ,.      ADR      r0,{pc}+0xb2 ; 0x1960
        0x000018b0:    e7f9        ..      B        0x18a6 ; _printf_core + 526
        0x000018b2:    4660        `F      MOV      r0,r12
        0x000018b4:    9b03        ..      LDR      r3,[sp,#0xc]
        0x000018b6:    9a02        ..      LDR      r2,[sp,#8]
        0x000018b8:    f7fefe36    ..6.    BL       __aeabi_uldivmod ; 0x528
        0x000018bc:    9b01        ..      LDR      r3,[sp,#4]
        0x000018be:    4684        .F      MOV      r12,r0
        0x000018c0:    5c9b        .\      LDRB     r3,[r3,r2]
        0x000018c2:    9a0e        ..      LDR      r2,[sp,#0x38]
        0x000018c4:    1e52        R.      SUBS     r2,r2,#1
        0x000018c6:    920e        ..      STR      r2,[sp,#0x38]
        0x000018c8:    7013        .p      STRB     r3,[r2,#0]
        0x000018ca:    4660        `F      MOV      r0,r12
        0x000018cc:    4308        .C      ORRS     r0,r0,r1
        0x000018ce:    d1f0        ..      BNE      0x18b2 ; _printf_core + 538
        0x000018d0:    980e        ..      LDR      r0,[sp,#0x38]
        0x000018d2:    a905        ..      ADD      r1,sp,#0x14
        0x000018d4:    1a08        ..      SUBS     r0,r1,r0
        0x000018d6:    3020         0      ADDS     r0,r0,#0x20
        0x000018d8:    9001        ..      STR      r0,[sp,#4]
        0x000018da:    0768        h.      LSLS     r0,r5,#29
        0x000018dc:    d501        ..      BPL      0x18e2 ; _printf_core + 586
        0x000018de:    9800        ..      LDR      r0,[sp,#0]
        0x000018e0:    e001        ..      B        0x18e6 ; _printf_core + 590
        0x000018e2:    2001        .       MOVS     r0,#1
        0x000018e4:    9000        ..      STR      r0,[sp,#0]
        0x000018e6:    9901        ..      LDR      r1,[sp,#4]
        0x000018e8:    4288        .B      CMP      r0,r1
        0x000018ea:    dd03        ..      BLE      0x18f4 ; _printf_core + 604
        0x000018ec:    4601        .F      MOV      r1,r0
        0x000018ee:    9801        ..      LDR      r0,[sp,#4]
        0x000018f0:    1a08        ..      SUBS     r0,r1,r0
        0x000018f2:    e000        ..      B        0x18f6 ; _printf_core + 606
        0x000018f4:    2000        .       MOVS     r0,#0
        0x000018f6:    2500        .%      MOVS     r5,#0
        0x000018f8:    9000        ..      STR      r0,[sp,#0]
        0x000018fa:    e006        ..      B        0x190a ; _printf_core + 626
        0x000018fc:    a804        ..      ADD      r0,sp,#0x10
        0x000018fe:    9a12        ..      LDR      r2,[sp,#0x48]
        0x00001900:    5d40        @]      LDRB     r0,[r0,r5]
        0x00001902:    9911        ..      LDR      r1,[sp,#0x44]
        0x00001904:    4790        .G      BLX      r2
        0x00001906:    1c6d        m.      ADDS     r5,r5,#1
        0x00001908:    1c76        v.      ADDS     r6,r6,#1
        0x0000190a:    980d        ..      LDR      r0,[sp,#0x34]
        0x0000190c:    4285        .B      CMP      r5,r0
        0x0000190e:    dbf5        ..      BLT      0x18fc ; _printf_core + 612
        0x00001910:    e004        ..      B        0x191c ; _printf_core + 644
        0x00001912:    9a12        ..      LDR      r2,[sp,#0x48]
        0x00001914:    2030        0       MOVS     r0,#0x30
        0x00001916:    9911        ..      LDR      r1,[sp,#0x44]
        0x00001918:    4790        .G      BLX      r2
        0x0000191a:    1c76        v.      ADDS     r6,r6,#1
        0x0000191c:    9900        ..      LDR      r1,[sp,#0]
        0x0000191e:    1e48        H.      SUBS     r0,r1,#1
        0x00001920:    9000        ..      STR      r0,[sp,#0]
        0x00001922:    2900        .)      CMP      r1,#0
        0x00001924:    dcf5        ..      BGT      0x1912 ; _printf_core + 634
        0x00001926:    e008        ..      B        0x193a ; _printf_core + 674
        0x00001928:    980e        ..      LDR      r0,[sp,#0x38]
        0x0000192a:    990e        ..      LDR      r1,[sp,#0x38]
        0x0000192c:    7800        .x      LDRB     r0,[r0,#0]
        0x0000192e:    1c49        I.      ADDS     r1,r1,#1
        0x00001930:    910e        ..      STR      r1,[sp,#0x38]
        0x00001932:    9a12        ..      LDR      r2,[sp,#0x48]
        0x00001934:    9911        ..      LDR      r1,[sp,#0x44]
        0x00001936:    4790        .G      BLX      r2
        0x00001938:    1c76        v.      ADDS     r6,r6,#1
        0x0000193a:    9901        ..      LDR      r1,[sp,#4]
        0x0000193c:    1e48        H.      SUBS     r0,r1,#1
        0x0000193e:    9001        ..      STR      r0,[sp,#4]
        0x00001940:    2900        .)      CMP      r1,#0
        0x00001942:    dcf1        ..      BGT      0x1928 ; _printf_core + 656
        0x00001944:    1c64        d.      ADDS     r4,r4,#1
        0x00001946:    e6b4        ..      B        0x16b2 ; _printf_core + 26
    $d
        0x00001948:    00012809    .(..    DCD    75785
        0x0000194c:    33323130    0123    DCD    858927408
        0x00001950:    37363534    4567    DCD    926299444
        0x00001954:    62613938    89ab    DCD    1650538808
        0x00001958:    66656463    cdef    DCD    1717920867
        0x0000195c:    00000000    ....    DCD    0
        0x00001960:    33323130    0123    DCD    858927408
        0x00001964:    37363534    4567    DCD    926299444
        0x00001968:    42413938    89AB    DCD    1111570744
        0x0000196c:    46454443    CDEF    DCD    1178944579
        0x00001970:    00000000    ....    DCD    0
    $t
    i.atan
    atan
        0x00001974:    b5f0        ..      PUSH     {r4-r7,lr}
        0x00001976:    b089        ..      SUB      sp,sp,#0x24
        0x00001978:    4604        .F      MOV      r4,r0
        0x0000197a:    460d        .F      MOV      r5,r1
        0x0000197c:    0048        H.      LSLS     r0,r1,#1
        0x0000197e:    9106        ..      STR      r1,[sp,#0x18]
        0x00001980:    4972        rI      LDR      r1,[pc,#456] ; [0x1b4c] = 0x44100000
        0x00001982:    0840        @.      LSRS     r0,r0,#1
        0x00001984:    4288        .B      CMP      r0,r1
        0x00001986:    db15        ..      BLT      0x19b4 ; atan + 64
        0x00001988:    4971        qI      LDR      r1,[pc,#452] ; [0x1b50] = 0x7ff00000
        0x0000198a:    4288        .B      CMP      r0,r1
        0x0000198c:    dc03        ..      BGT      0x1996 ; atan + 34
        0x0000198e:    4288        .B      CMP      r0,r1
        0x00001990:    d107        ..      BNE      0x19a2 ; atan + 46
        0x00001992:    2c00        .,      CMP      r4,#0
        0x00001994:    d005        ..      BEQ      0x19a2 ; atan + 46
        0x00001996:    4620         F      MOV      r0,r4
        0x00001998:    4629        )F      MOV      r1,r5
        0x0000199a:    f7fffe41    ..A.    BL       __mathlib_dbl_infnan ; 0x1620
        0x0000199e:    b009        ..      ADD      sp,sp,#0x24
        0x000019a0:    bdf0        ..      POP      {r4-r7,pc}
        0x000019a2:    486c        lH      LDR      r0,[pc,#432] ; [0x1b54] = 0x54442d18
        0x000019a4:    2d00        .-      CMP      r5,#0
        0x000019a6:    dd02        ..      BLE      0x19ae ; atan + 58
        0x000019a8:    496b        kI      LDR      r1,[pc,#428] ; [0x1b58] = 0x3ff921fb
        0x000019aa:    b009        ..      ADD      sp,sp,#0x24
        0x000019ac:    bdf0        ..      POP      {r4-r7,pc}
        0x000019ae:    496b        kI      LDR      r1,[pc,#428] ; [0x1b5c] = 0xbff921fb
        0x000019b0:    b009        ..      ADD      sp,sp,#0x24
        0x000019b2:    bdf0        ..      POP      {r4-r7,pc}
        0x000019b4:    496a        jI      LDR      r1,[pc,#424] ; [0x1b60] = 0x3fdc0000
        0x000019b6:    4288        .B      CMP      r0,r1
        0x000019b8:    da11        ..      BGE      0x19de ; atan + 106
        0x000019ba:    496a        jI      LDR      r1,[pc,#424] ; [0x1b64] = 0x3e200000
        0x000019bc:    4288        .B      CMP      r0,r1
        0x000019be:    da0b        ..      BGE      0x19d8 ; atan + 100
        0x000019c0:    4620         F      MOV      r0,r4
        0x000019c2:    4629        )F      MOV      r1,r5
        0x000019c4:    f7fffdb6    ....    BL       __ARM_fpclassify ; 0x1534
        0x000019c8:    2804        .(      CMP      r0,#4
        0x000019ca:    d101        ..      BNE      0x19d0 ; atan + 92
        0x000019cc:    f7fffe44    ..D.    BL       __mathlib_dbl_underflow ; 0x1658
        0x000019d0:    4620         F      MOV      r0,r4
        0x000019d2:    4629        )F      MOV      r1,r5
        0x000019d4:    b009        ..      ADD      sp,sp,#0x24
        0x000019d6:    bdf0        ..      POP      {r4-r7,pc}
        0x000019d8:    2600        .&      MOVS     r6,#0
        0x000019da:    43f6        .C      MVNS     r6,r6
        0x000019dc:    e05d        ].      B        0x1a9a ; atan + 294
        0x000019de:    006d        m.      LSLS     r5,r5,#1
        0x000019e0:    4961        aI      LDR      r1,[pc,#388] ; [0x1b68] = 0x3ff30000
        0x000019e2:    086d        m.      LSRS     r5,r5,#1
        0x000019e4:    4288        .B      CMP      r0,r1
        0x000019e6:    da32        2.      BGE      0x1a4e ; atan + 218
        0x000019e8:    4960        `I      LDR      r1,[pc,#384] ; [0x1b6c] = 0x3fe60000
        0x000019ea:    4288        .B      CMP      r0,r1
        0x000019ec:    da19        ..      BGE      0x1a22 ; atan + 174
        0x000019ee:    2600        .&      MOVS     r6,#0
        0x000019f0:    2301        .#      MOVS     r3,#1
        0x000019f2:    4632        2F      MOV      r2,r6
        0x000019f4:    079b        ..      LSLS     r3,r3,#30
        0x000019f6:    4620         F      MOV      r0,r4
        0x000019f8:    4629        )F      MOV      r1,r5
        0x000019fa:    f7fefbd3    ....    BL       __aeabi_dadd ; 0x1a4
        0x000019fe:    4607        .F      MOV      r7,r0
        0x00001a00:    9101        ..      STR      r1,[sp,#4]
        0x00001a02:    2201        ."      MOVS     r2,#1
        0x00001a04:    4620         F      MOV      r0,r4
        0x00001a06:    4629        )F      MOV      r1,r5
        0x00001a08:    f7fefe81    ....    BL       __ARM_scalbn ; 0x70e
        0x00001a0c:    2200        ."      MOVS     r2,#0
        0x00001a0e:    4b58        XK      LDR      r3,[pc,#352] ; [0x1b70] = 0x3ff00000
        0x00001a10:    f7fefc6c    ..l.    BL       __aeabi_dsub ; 0x2ec
        0x00001a14:    463a        :F      MOV      r2,r7
        0x00001a16:    9b01        ..      LDR      r3,[sp,#4]
        0x00001a18:    f7fefcde    ....    BL       __aeabi_ddiv ; 0x3d8
        0x00001a1c:    4604        .F      MOV      r4,r0
        0x00001a1e:    460d        .F      MOV      r5,r1
        0x00001a20:    e03b        ;.      B        0x1a9a ; atan + 294
        0x00001a22:    2601        .&      MOVS     r6,#1
        0x00001a24:    2200        ."      MOVS     r2,#0
        0x00001a26:    4b52        RK      LDR      r3,[pc,#328] ; [0x1b70] = 0x3ff00000
        0x00001a28:    4620         F      MOV      r0,r4
        0x00001a2a:    4629        )F      MOV      r1,r5
        0x00001a2c:    f7fefbba    ....    BL       __aeabi_dadd ; 0x1a4
        0x00001a30:    4607        .F      MOV      r7,r0
        0x00001a32:    9100        ..      STR      r1,[sp,#0]
        0x00001a34:    2200        ."      MOVS     r2,#0
        0x00001a36:    4b4e        NK      LDR      r3,[pc,#312] ; [0x1b70] = 0x3ff00000
        0x00001a38:    4620         F      MOV      r0,r4
        0x00001a3a:    4629        )F      MOV      r1,r5
        0x00001a3c:    f7fefc56    ..V.    BL       __aeabi_dsub ; 0x2ec
        0x00001a40:    463a        :F      MOV      r2,r7
        0x00001a42:    9b00        ..      LDR      r3,[sp,#0]
        0x00001a44:    f7fefcc8    ....    BL       __aeabi_ddiv ; 0x3d8
        0x00001a48:    4604        .F      MOV      r4,r0
        0x00001a4a:    460d        .F      MOV      r5,r1
        0x00001a4c:    e025        %.      B        0x1a9a ; atan + 294
        0x00001a4e:    4949        II      LDR      r1,[pc,#292] ; [0x1b74] = 0x40038000
        0x00001a50:    4288        .B      CMP      r0,r1
        0x00001a52:    da19        ..      BGE      0x1a88 ; atan + 276
        0x00001a54:    2602        .&      MOVS     r6,#2
        0x00001a56:    2200        ."      MOVS     r2,#0
        0x00001a58:    4b47        GK      LDR      r3,[pc,#284] ; [0x1b78] = 0x3ff80000
        0x00001a5a:    4620         F      MOV      r0,r4
        0x00001a5c:    4629        )F      MOV      r1,r5
        0x00001a5e:    f7fefc53    ..S.    BL       __aeabi_dmul ; 0x308
        0x00001a62:    2200        ."      MOVS     r2,#0
        0x00001a64:    4b42        BK      LDR      r3,[pc,#264] ; [0x1b70] = 0x3ff00000
        0x00001a66:    f7fefb9d    ....    BL       __aeabi_dadd ; 0x1a4
        0x00001a6a:    4607        .F      MOV      r7,r0
        0x00001a6c:    9102        ..      STR      r1,[sp,#8]
        0x00001a6e:    2200        ."      MOVS     r2,#0
        0x00001a70:    4b41        AK      LDR      r3,[pc,#260] ; [0x1b78] = 0x3ff80000
        0x00001a72:    4620         F      MOV      r0,r4
        0x00001a74:    4629        )F      MOV      r1,r5
        0x00001a76:    f7fefc39    ..9.    BL       __aeabi_dsub ; 0x2ec
        0x00001a7a:    463a        :F      MOV      r2,r7
        0x00001a7c:    9b02        ..      LDR      r3,[sp,#8]
        0x00001a7e:    f7fefcab    ....    BL       __aeabi_ddiv ; 0x3d8
        0x00001a82:    4604        .F      MOV      r4,r0
        0x00001a84:    460d        .F      MOV      r5,r1
        0x00001a86:    e008        ..      B        0x1a9a ; atan + 294
        0x00001a88:    2603        .&      MOVS     r6,#3
        0x00001a8a:    4622        "F      MOV      r2,r4
        0x00001a8c:    462b        +F      MOV      r3,r5
        0x00001a8e:    2000        .       MOVS     r0,#0
        0x00001a90:    493a        :I      LDR      r1,[pc,#232] ; [0x1b7c] = 0xbff00000
        0x00001a92:    f7fefca1    ....    BL       __aeabi_ddiv ; 0x3d8
        0x00001a96:    4604        .F      MOV      r4,r0
        0x00001a98:    460d        .F      MOV      r5,r1
        0x00001a9a:    4622        "F      MOV      r2,r4
        0x00001a9c:    462b        +F      MOV      r3,r5
        0x00001a9e:    4610        .F      MOV      r0,r2
        0x00001aa0:    4619        .F      MOV      r1,r3
        0x00001aa2:    f7fefc31    ..1.    BL       __aeabi_dmul ; 0x308
        0x00001aa6:    4607        .F      MOV      r7,r0
        0x00001aa8:    460b        .F      MOV      r3,r1
        0x00001aaa:    4602        .F      MOV      r2,r0
        0x00001aac:    9101        ..      STR      r1,[sp,#4]
        0x00001aae:    f7fefc2b    ..+.    BL       __aeabi_dmul ; 0x308
        0x00001ab2:    4602        .F      MOV      r2,r0
        0x00001ab4:    9002        ..      STR      r0,[sp,#8]
        0x00001ab6:    4832        2H      LDR      r0,[pc,#200] ; [0x1b80] = 0x108e
        0x00001ab8:    460b        .F      MOV      r3,r1
        0x00001aba:    9103        ..      STR      r1,[sp,#0xc]
        0x00001abc:    2106        .!      MOVS     r1,#6
        0x00001abe:    4478        xD      ADD      r0,r0,pc
        0x00001ac0:    f7fffd4e    ..N.    BL       __kernel_poly ; 0x1560
        0x00001ac4:    463a        :F      MOV      r2,r7
        0x00001ac6:    9b01        ..      LDR      r3,[sp,#4]
        0x00001ac8:    f7fefc1e    ....    BL       __aeabi_dmul ; 0x308
        0x00001acc:    9000        ..      STR      r0,[sp,#0]
        0x00001ace:    482d        -H      LDR      r0,[pc,#180] ; [0x1b84] = 0x1050
        0x00001ad0:    9101        ..      STR      r1,[sp,#4]
        0x00001ad2:    2105        .!      MOVS     r1,#5
        0x00001ad4:    4478        xD      ADD      r0,r0,pc
        0x00001ad6:    9b03        ..      LDR      r3,[sp,#0xc]
        0x00001ad8:    9a02        ..      LDR      r2,[sp,#8]
        0x00001ada:    f7fffd41    ..A.    BL       __kernel_poly ; 0x1560
        0x00001ade:    9b03        ..      LDR      r3,[sp,#0xc]
        0x00001ae0:    9a02        ..      LDR      r2,[sp,#8]
        0x00001ae2:    f7fefc11    ....    BL       __aeabi_dmul ; 0x308
        0x00001ae6:    4602        .F      MOV      r2,r0
        0x00001ae8:    460b        .F      MOV      r3,r1
        0x00001aea:    9901        ..      LDR      r1,[sp,#4]
        0x00001aec:    9800        ..      LDR      r0,[sp,#0]
        0x00001aee:    2e00        ..      CMP      r6,#0
        0x00001af0:    da0b        ..      BGE      0x1b0a ; atan + 406
        0x00001af2:    f7fefb57    ..W.    BL       __aeabi_dadd ; 0x1a4
        0x00001af6:    4622        "F      MOV      r2,r4
        0x00001af8:    462b        +F      MOV      r3,r5
        0x00001afa:    f7fefc05    ....    BL       __aeabi_dmul ; 0x308
        0x00001afe:    4622        "F      MOV      r2,r4
        0x00001b00:    462b        +F      MOV      r3,r5
        0x00001b02:    f7fefbf9    ....    BL       __aeabi_drsub ; 0x2f8
        0x00001b06:    b009        ..      ADD      sp,sp,#0x24
        0x00001b08:    bdf0        ..      POP      {r4-r7,pc}
        0x00001b0a:    f7fefb4b    ..K.    BL       __aeabi_dadd ; 0x1a4
        0x00001b0e:    4622        "F      MOV      r2,r4
        0x00001b10:    462b        +F      MOV      r3,r5
        0x00001b12:    f7fefbf9    ....    BL       __aeabi_dmul ; 0x308
        0x00001b16:    4a1c        .J      LDR      r2,[pc,#112] ; [0x1b88] = 0xfea
        0x00001b18:    00f6        ..      LSLS     r6,r6,#3
        0x00001b1a:    447a        zD      ADD      r2,r2,pc
        0x00001b1c:    1993        ..      ADDS     r3,r2,r6
        0x00001b1e:    681a        .h      LDR      r2,[r3,#0]
        0x00001b20:    685b        [h      LDR      r3,[r3,#4]
        0x00001b22:    f7fefbe3    ....    BL       __aeabi_dsub ; 0x2ec
        0x00001b26:    4622        "F      MOV      r2,r4
        0x00001b28:    462b        +F      MOV      r3,r5
        0x00001b2a:    f7fefbdf    ....    BL       __aeabi_dsub ; 0x2ec
        0x00001b2e:    4a17        .J      LDR      r2,[pc,#92] ; [0x1b8c] = 0xfb4
        0x00001b30:    447a        zD      ADD      r2,r2,pc
        0x00001b32:    1993        ..      ADDS     r3,r2,r6
        0x00001b34:    681a        .h      LDR      r2,[r3,#0]
        0x00001b36:    685b        [h      LDR      r3,[r3,#4]
        0x00001b38:    f7fefbde    ....    BL       __aeabi_drsub ; 0x2f8
        0x00001b3c:    9a06        ..      LDR      r2,[sp,#0x18]
        0x00001b3e:    2a00        .*      CMP      r2,#0
        0x00001b40:    dae1        ..      BGE      0x1b06 ; atan + 402
        0x00001b42:    2201        ."      MOVS     r2,#1
        0x00001b44:    07d2        ..      LSLS     r2,r2,#31
        0x00001b46:    4051        Q@      EORS     r1,r1,r2
        0x00001b48:    b009        ..      ADD      sp,sp,#0x24
        0x00001b4a:    bdf0        ..      POP      {r4-r7,pc}
    $d
        0x00001b4c:    44100000    ...D    DCD    1141899264
        0x00001b50:    7ff00000    ....    DCD    2146435072
        0x00001b54:    54442d18    .-DT    DCD    1413754136
        0x00001b58:    3ff921fb    .!.?    DCD    1073291771
        0x00001b5c:    bff921fb    .!..    DCD    3220775419
        0x00001b60:    3fdc0000    ...?    DCD    1071382528
        0x00001b64:    3e200000    .. >    DCD    1042284544
        0x00001b68:    3ff30000    ...?    DCD    1072889856
        0x00001b6c:    3fe60000    ...?    DCD    1072037888
        0x00001b70:    3ff00000    ...?    DCD    1072693248
        0x00001b74:    40038000    ...@    DCD    1073971200
        0x00001b78:    3ff80000    ...?    DCD    1073217536
        0x00001b7c:    bff00000    ....    DCD    3220176896
        0x00001b80:    0000108e    ....    DCD    4238
        0x00001b84:    00001050    P...    DCD    4176
        0x00001b88:    00000fea    ....    DCD    4074
        0x00001b8c:    00000fb4    ....    DCD    4020
    $t
    i.clear_LCD
    clear_LCD
        0x00001b90:    b530        0.      PUSH     {r4,r5,lr}
        0x00001b92:    2100        .!      MOVS     r1,#0
        0x00001b94:    4d12        .M      LDR      r5,[pc,#72] ; [0x1be0] = 0x2000020c
        0x00001b96:    460a        .F      MOV      r2,r1
        0x00001b98:    17cb        ..      ASRS     r3,r1,#31
        0x00001b9a:    0f5b        [.      LSRS     r3,r3,#29
        0x00001b9c:    185b        [.      ADDS     r3,r3,r1
        0x00001b9e:    2000        .       MOVS     r0,#0
        0x00001ba0:    10db        ..      ASRS     r3,r3,#3
        0x00001ba2:    01db        ..      LSLS     r3,r3,#7
        0x00001ba4:    181c        ..      ADDS     r4,r3,r0
        0x00001ba6:    1964        d.      ADDS     r4,r4,r5
        0x00001ba8:    1c40        @.      ADDS     r0,r0,#1
        0x00001baa:    b200        ..      SXTH     r0,r0
        0x00001bac:    7022        "p      STRB     r2,[r4,#0]
        0x00001bae:    2880        .(      CMP      r0,#0x80
        0x00001bb0:    dbf8        ..      BLT      0x1ba4 ; clear_LCD + 20
        0x00001bb2:    1c49        I.      ADDS     r1,r1,#1
        0x00001bb4:    b209        ..      SXTH     r1,r1
        0x00001bb6:    2940        @)      CMP      r1,#0x40
        0x00001bb8:    dbee        ..      BLT      0x1b98 ; clear_LCD + 8
        0x00001bba:    2100        .!      MOVS     r1,#0
        0x00001bbc:    4608        .F      MOV      r0,r1
        0x00001bbe:    f000f895    ....    BL       lcdSetAddr ; 0x1cec
        0x00001bc2:    2400        .$      MOVS     r4,#0
        0x00001bc4:    2521        !%      MOVS     r5,#0x21
        0x00001bc6:    016d        m.      LSLS     r5,r5,#5
        0x00001bc8:    2000        .       MOVS     r0,#0
        0x00001bca:    f000f8db    ....    BL       lcdWriteData ; 0x1d84
        0x00001bce:    1c64        d.      ADDS     r4,r4,#1
        0x00001bd0:    b224        $.      SXTH     r4,r4
        0x00001bd2:    42ac        .B      CMP      r4,r5
        0x00001bd4:    dbf8        ..      BLT      0x1bc8 ; clear_LCD + 56
        0x00001bd6:    200f        .       MOVS     r0,#0xf
        0x00001bd8:    f000f8d4    ....    BL       lcdWriteData ; 0x1d84
        0x00001bdc:    bd30        0.      POP      {r4,r5,pc}
    $d
        0x00001bde:    0000        ..      DCW    0
        0x00001be0:    2000020c    ...     DCD    536871436
    $t
    i.draw_Bmp16x16
    draw_Bmp16x16
        0x00001be4:    b5ff        ..      PUSH     {r0-r7,lr}
        0x00001be6:    b083        ..      SUB      sp,sp,#0xc
        0x00001be8:    9803        ..      LDR      r0,[sp,#0xc]
        0x00001bea:    2871        q(      CMP      r0,#0x71
        0x00001bec:    da2b        +.      BGE      0x1c46 ; draw_Bmp16x16 + 98
        0x00001bee:    9804        ..      LDR      r0,[sp,#0x10]
        0x00001bf0:    2831        1(      CMP      r0,#0x31
        0x00001bf2:    da28        (.      BGE      0x1c46 ; draw_Bmp16x16 + 98
        0x00001bf4:    2600        .&      MOVS     r6,#0
        0x00001bf6:    0130        0.      LSLS     r0,r6,#4
        0x00001bf8:    9001        ..      STR      r0,[sp,#4]
        0x00001bfa:    9904        ..      LDR      r1,[sp,#0x10]
        0x00001bfc:    2500        .%      MOVS     r5,#0
        0x00001bfe:    00f0        ..      LSLS     r0,r6,#3
        0x00001c00:    1840        @.      ADDS     r0,r0,r1
        0x00001c02:    9000        ..      STR      r0,[sp,#0]
        0x00001c04:    9803        ..      LDR      r0,[sp,#0xc]
        0x00001c06:    1940        @.      ADDS     r0,r0,r5
        0x00001c08:    b2c0        ..      UXTB     r0,r0
        0x00001c0a:    9002        ..      STR      r0,[sp,#8]
        0x00001c0c:    9801        ..      LDR      r0,[sp,#4]
        0x00001c0e:    1941        A.      ADDS     r1,r0,r5
        0x00001c10:    980c        ..      LDR      r0,[sp,#0x30]
        0x00001c12:    2400        .$      MOVS     r4,#0
        0x00001c14:    5c47        G\      LDRB     r7,[r0,r1]
        0x00001c16:    9800        ..      LDR      r0,[sp,#0]
        0x00001c18:    1900        ..      ADDS     r0,r0,r4
        0x00001c1a:    b2c1        ..      UXTB     r1,r0
        0x00001c1c:    2001        .       MOVS     r0,#1
        0x00001c1e:    40a0        .@      LSLS     r0,r0,r4
        0x00001c20:    4238        8B      TST      r0,r7
        0x00001c22:    d004        ..      BEQ      0x1c2e ; draw_Bmp16x16 + 74
        0x00001c24:    9b06        ..      LDR      r3,[sp,#0x18]
        0x00001c26:    9a05        ..      LDR      r2,[sp,#0x14]
        0x00001c28:    9802        ..      LDR      r0,[sp,#8]
        0x00001c2a:    f000f80f    ....    BL       draw_Pixel ; 0x1c4c
        0x00001c2e:    1c64        d.      ADDS     r4,r4,#1
        0x00001c30:    b2e4        ..      UXTB     r4,r4
        0x00001c32:    2c08        .,      CMP      r4,#8
        0x00001c34:    d3ef        ..      BCC      0x1c16 ; draw_Bmp16x16 + 50
        0x00001c36:    1c6d        m.      ADDS     r5,r5,#1
        0x00001c38:    b2ed        ..      UXTB     r5,r5
        0x00001c3a:    2d10        .-      CMP      r5,#0x10
        0x00001c3c:    d3e2        ..      BCC      0x1c04 ; draw_Bmp16x16 + 32
        0x00001c3e:    1c76        v.      ADDS     r6,r6,#1
        0x00001c40:    b2f6        ..      UXTB     r6,r6
        0x00001c42:    2e02        ..      CMP      r6,#2
        0x00001c44:    d3d7        ..      BCC      0x1bf6 ; draw_Bmp16x16 + 18
        0x00001c46:    b007        ..      ADD      sp,sp,#0x1c
        0x00001c48:    bdf0        ..      POP      {r4-r7,pc}
        0x00001c4a:    0000        ..      MOVS     r0,r0
    i.draw_Pixel
    draw_Pixel
        0x00001c4c:    b530        0.      PUSH     {r4,r5,lr}
        0x00001c4e:    17cb        ..      ASRS     r3,r1,#31
        0x00001c50:    0f5b        [.      LSRS     r3,r3,#29
        0x00001c52:    185c        \.      ADDS     r4,r3,r1
        0x00001c54:    08e3        ..      LSRS     r3,r4,#3
        0x00001c56:    00db        ..      LSLS     r3,r3,#3
        0x00001c58:    1acb        ..      SUBS     r3,r1,r3
        0x00001c5a:    10e5        ..      ASRS     r5,r4,#3
        0x00001c5c:    01e9        ..      LSLS     r1,r5,#7
        0x00001c5e:    180c        ..      ADDS     r4,r1,r0
        0x00001c60:    490b        .I      LDR      r1,[pc,#44] ; [0x1c90] = 0x2000020c
        0x00001c62:    1864        d.      ADDS     r4,r4,r1
        0x00001c64:    7821        !x      LDRB     r1,[r4,#0]
        0x00001c66:    2a00        .*      CMP      r2,#0
        0x00001c68:    d003        ..      BEQ      0x1c72 ; draw_Pixel + 38
        0x00001c6a:    2201        ."      MOVS     r2,#1
        0x00001c6c:    409a        .@      LSLS     r2,r2,r3
        0x00001c6e:    4311        .C      ORRS     r1,r1,r2
        0x00001c70:    e002        ..      B        0x1c78 ; draw_Pixel + 44
        0x00001c72:    22fe        ."      MOVS     r2,#0xfe
        0x00001c74:    409a        .@      LSLS     r2,r2,r3
        0x00001c76:    4011        .@      ANDS     r1,r1,r2
        0x00001c78:    7021        !p      STRB     r1,[r4,#0]
        0x00001c7a:    2181        .!      MOVS     r1,#0x81
        0x00001c7c:    1a08        ..      SUBS     r0,r1,r0
        0x00001c7e:    b2c1        ..      UXTB     r1,r0
        0x00001c80:    b2e8        ..      UXTB     r0,r5
        0x00001c82:    f000f833    ..3.    BL       lcdSetAddr ; 0x1cec
        0x00001c86:    7820         x      LDRB     r0,[r4,#0]
        0x00001c88:    f000f87c    ..|.    BL       lcdWriteData ; 0x1d84
        0x00001c8c:    bd30        0.      POP      {r4,r5,pc}
    $d
        0x00001c8e:    0000        ..      DCW    0
        0x00001c90:    2000020c    ...     DCD    536871436
    $t
    i.fputc
    fputc
        0x00001c94:    b510        ..      PUSH     {r4,lr}
        0x00001c96:    4604        .F      MOV      r4,r0
        0x00001c98:    f7fffba6    ....    BL       SendChar ; 0x13e8
        0x00001c9c:    4620         F      MOV      r0,r4
        0x00001c9e:    bd10        ..      POP      {r4,pc}
    i.init_LCD
    init_LCD
        0x00001ca0:    b510        ..      PUSH     {r4,lr}
        0x00001ca2:    f000f811    ....    BL       init_SPI3 ; 0x1cc8
        0x00001ca6:    20eb        .       MOVS     r0,#0xeb
        0x00001ca8:    f000f858    ..X.    BL       lcdWriteCommand ; 0x1d5c
        0x00001cac:    2081        .       MOVS     r0,#0x81
        0x00001cae:    f000f855    ..U.    BL       lcdWriteCommand ; 0x1d5c
        0x00001cb2:    20a0        .       MOVS     r0,#0xa0
        0x00001cb4:    f000f852    ..R.    BL       lcdWriteCommand ; 0x1d5c
        0x00001cb8:    20c0        .       MOVS     r0,#0xc0
        0x00001cba:    f000f84f    ..O.    BL       lcdWriteCommand ; 0x1d5c
        0x00001cbe:    20af        .       MOVS     r0,#0xaf
        0x00001cc0:    f000f84c    ..L.    BL       lcdWriteCommand ; 0x1d5c
        0x00001cc4:    bd10        ..      POP      {r4,pc}
        0x00001cc6:    0000        ..      MOVS     r0,r0
    i.init_SPI3
    init_SPI3
        0x00001cc8:    b538        8.      PUSH     {r3-r5,lr}
        0x00001cca:    4806        .H      LDR      r0,[pc,#24] ; [0x1ce4] = 0xf4240
        0x00001ccc:    4c06        .L      LDR      r4,[pc,#24] ; [0x1ce8] = 0x40134000
        0x00001cce:    9000        ..      STR      r0,[sp,#0]
        0x00001cd0:    2309        .#      MOVS     r3,#9
        0x00001cd2:    2204        ."      MOVS     r2,#4
        0x00001cd4:    2100        .!      MOVS     r1,#0
        0x00001cd6:    4620         F      MOV      r0,r4
        0x00001cd8:    f7fffa84    ....    BL       SPI_Open ; 0x11e4
        0x00001cdc:    4620         F      MOV      r0,r4
        0x00001cde:    f7fffa7b    ..{.    BL       SPI_DisableAutoSS ; 0x11d8
        0x00001ce2:    bd38        8.      POP      {r3-r5,pc}
    $d
        0x00001ce4:    000f4240    @B..    DCD    1000000
        0x00001ce8:    40134000    .@.@    DCD    1075003392
    $t
    i.lcdSetAddr
    lcdSetAddr
        0x00001cec:    b510        ..      PUSH     {r4,lr}
        0x00001cee:    4a1a        .J      LDR      r2,[pc,#104] ; [0x1d58] = 0x40134000
        0x00001cf0:    6894        .h      LDR      r4,[r2,#8]
        0x00001cf2:    230d        .#      MOVS     r3,#0xd
        0x00001cf4:    439c        .C      BICS     r4,r4,r3
        0x00001cf6:    1c64        d.      ADDS     r4,r4,#1
        0x00001cf8:    6094        .`      STR      r4,[r2,#8]
        0x00001cfa:    24b0        .$      MOVS     r4,#0xb0
        0x00001cfc:    4320         C      ORRS     r0,r0,r4
        0x00001cfe:    6210        .b      STR      r0,[r2,#0x20]
        0x00001d00:    6810        .h      LDR      r0,[r2,#0]
        0x00001d02:    2401        .$      MOVS     r4,#1
        0x00001d04:    4320         C      ORRS     r0,r0,r4
        0x00001d06:    6010        .`      STR      r0,[r2,#0]
        0x00001d08:    6810        .h      LDR      r0,[r2,#0]
        0x00001d0a:    07c0        ..      LSLS     r0,r0,#31
        0x00001d0c:    d1fc        ..      BNE      0x1d08 ; lcdSetAddr + 28
        0x00001d0e:    6890        .h      LDR      r0,[r2,#8]
        0x00001d10:    4398        .C      BICS     r0,r0,r3
        0x00001d12:    6090        .`      STR      r0,[r2,#8]
        0x00001d14:    6890        .h      LDR      r0,[r2,#8]
        0x00001d16:    4398        .C      BICS     r0,r0,r3
        0x00001d18:    1c40        @.      ADDS     r0,r0,#1
        0x00001d1a:    6090        .`      STR      r0,[r2,#8]
        0x00001d1c:    0908        ..      LSRS     r0,r1,#4
        0x00001d1e:    3010        .0      ADDS     r0,r0,#0x10
        0x00001d20:    6210        .b      STR      r0,[r2,#0x20]
        0x00001d22:    6810        .h      LDR      r0,[r2,#0]
        0x00001d24:    4320         C      ORRS     r0,r0,r4
        0x00001d26:    6010        .`      STR      r0,[r2,#0]
        0x00001d28:    6810        .h      LDR      r0,[r2,#0]
        0x00001d2a:    07c0        ..      LSLS     r0,r0,#31
        0x00001d2c:    d1fc        ..      BNE      0x1d28 ; lcdSetAddr + 60
        0x00001d2e:    6890        .h      LDR      r0,[r2,#8]
        0x00001d30:    4398        .C      BICS     r0,r0,r3
        0x00001d32:    6090        .`      STR      r0,[r2,#8]
        0x00001d34:    6890        .h      LDR      r0,[r2,#8]
        0x00001d36:    4398        .C      BICS     r0,r0,r3
        0x00001d38:    1c40        @.      ADDS     r0,r0,#1
        0x00001d3a:    6090        .`      STR      r0,[r2,#8]
        0x00001d3c:    0708        ..      LSLS     r0,r1,#28
        0x00001d3e:    0f00        ..      LSRS     r0,r0,#28
        0x00001d40:    6210        .b      STR      r0,[r2,#0x20]
        0x00001d42:    6810        .h      LDR      r0,[r2,#0]
        0x00001d44:    4320         C      ORRS     r0,r0,r4
        0x00001d46:    6010        .`      STR      r0,[r2,#0]
        0x00001d48:    6810        .h      LDR      r0,[r2,#0]
        0x00001d4a:    07c0        ..      LSLS     r0,r0,#31
        0x00001d4c:    d1fc        ..      BNE      0x1d48 ; lcdSetAddr + 92
        0x00001d4e:    6890        .h      LDR      r0,[r2,#8]
        0x00001d50:    4398        .C      BICS     r0,r0,r3
        0x00001d52:    6090        .`      STR      r0,[r2,#8]
        0x00001d54:    bd10        ..      POP      {r4,pc}
    $d
        0x00001d56:    0000        ..      DCW    0
        0x00001d58:    40134000    .@.@    DCD    1075003392
    $t
    i.lcdWriteCommand
    lcdWriteCommand
        0x00001d5c:    4908        .I      LDR      r1,[pc,#32] ; [0x1d80] = 0x40134000
        0x00001d5e:    688b        .h      LDR      r3,[r1,#8]
        0x00001d60:    220d        ."      MOVS     r2,#0xd
        0x00001d62:    4393        .C      BICS     r3,r3,r2
        0x00001d64:    1c5b        [.      ADDS     r3,r3,#1
        0x00001d66:    608b        .`      STR      r3,[r1,#8]
        0x00001d68:    6208        .b      STR      r0,[r1,#0x20]
        0x00001d6a:    6808        .h      LDR      r0,[r1,#0]
        0x00001d6c:    2301        .#      MOVS     r3,#1
        0x00001d6e:    4318        .C      ORRS     r0,r0,r3
        0x00001d70:    6008        .`      STR      r0,[r1,#0]
        0x00001d72:    6808        .h      LDR      r0,[r1,#0]
        0x00001d74:    07c0        ..      LSLS     r0,r0,#31
        0x00001d76:    d1fc        ..      BNE      0x1d72 ; lcdWriteCommand + 22
        0x00001d78:    6888        .h      LDR      r0,[r1,#8]
        0x00001d7a:    4390        .C      BICS     r0,r0,r2
        0x00001d7c:    6088        .`      STR      r0,[r1,#8]
        0x00001d7e:    4770        pG      BX       lr
    $d
        0x00001d80:    40134000    .@.@    DCD    1075003392
    $t
    i.lcdWriteData
    lcdWriteData
        0x00001d84:    4909        .I      LDR      r1,[pc,#36] ; [0x1dac] = 0x40134000
        0x00001d86:    688b        .h      LDR      r3,[r1,#8]
        0x00001d88:    220d        ."      MOVS     r2,#0xd
        0x00001d8a:    4393        .C      BICS     r3,r3,r2
        0x00001d8c:    1c5b        [.      ADDS     r3,r3,#1
        0x00001d8e:    608b        .`      STR      r3,[r1,#8]
        0x00001d90:    30ff        .0      ADDS     r0,r0,#0xff
        0x00001d92:    3001        .0      ADDS     r0,#1
        0x00001d94:    6208        .b      STR      r0,[r1,#0x20]
        0x00001d96:    6808        .h      LDR      r0,[r1,#0]
        0x00001d98:    2301        .#      MOVS     r3,#1
        0x00001d9a:    4318        .C      ORRS     r0,r0,r3
        0x00001d9c:    6008        .`      STR      r0,[r1,#0]
        0x00001d9e:    6808        .h      LDR      r0,[r1,#0]
        0x00001da0:    07c0        ..      LSLS     r0,r0,#31
        0x00001da2:    d1fc        ..      BNE      0x1d9e ; lcdWriteData + 26
        0x00001da4:    6888        .h      LDR      r0,[r1,#8]
        0x00001da6:    4390        .C      BICS     r0,r0,r2
        0x00001da8:    6088        .`      STR      r0,[r1,#8]
        0x00001daa:    4770        pG      BX       lr
    $d
        0x00001dac:    40134000    .@.@    DCD    1075003392
    $t
    i.main
    main
        0x00001db0:    b08a        ..      SUB      sp,sp,#0x28
        0x00001db2:    2003        .       MOVS     r0,#3
        0x00001db4:    2500        .%      MOVS     r5,#0
        0x00001db6:    9008        ..      STR      r0,[sp,#0x20]
        0x00001db8:    462c        ,F      MOV      r4,r5
        0x00001dba:    9007        ..      STR      r0,[sp,#0x1c]
        0x00001dbc:    f7fffac8    ....    BL       SYS_Init ; 0x1350
        0x00001dc0:    f7ffff6e    ..n.    BL       init_LCD ; 0x1ca0
        0x00001dc4:    f7fffee4    ....    BL       clear_LCD ; 0x1b90
        0x00001dc8:    4873        sH      LDR      r0,[pc,#460] ; [0x1f98] = 0x61a80
        0x00001dca:    f7fff98b    ....    BL       NVT_I2C_Init ; 0x10e4
        0x00001dce:    2068        h       MOVS     r0,#0x68
        0x00001dd0:    f7fff920    .. .    BL       MPU6050_address ; 0x1014
        0x00001dd4:    f7fff948    ..H.    BL       MPU6050_initialize ; 0x1068
        0x00001dd8:    4870        pH      LDR      r0,[pc,#448] ; [0x1f9c] = 0x20000034
        0x00001dda:    2732        2'      MOVS     r7,#0x32
        0x00001ddc:    261a        .&      MOVS     r6,#0x1a
        0x00001dde:    9000        ..      STR      r0,[sp,#0]
        0x00001de0:    2300        .#      MOVS     r3,#0
        0x00001de2:    4a6f        oJ      LDR      r2,[pc,#444] ; [0x1fa0] = 0xffff
        0x00001de4:    4631        1F      MOV      r1,r6
        0x00001de6:    4638        8F      MOV      r0,r7
        0x00001de8:    f7fffefc    ....    BL       draw_Bmp16x16 ; 0x1be4
        0x00001dec:    aa06        ..      ADD      r2,sp,#0x18
        0x00001dee:    a905        ..      ADD      r1,sp,#0x14
        0x00001df0:    a804        ..      ADD      r0,sp,#0x10
        0x00001df2:    f7fff915    ....    BL       MPU6050_getAcceleration ; 0x1020
        0x00001df6:    4669        iF      MOV      r1,sp
        0x00001df8:    2018        .       MOVS     r0,#0x18
        0x00001dfa:    5e08        .^      LDRSH    r0,[r1,r0]
        0x00001dfc:    f7fefb64    ..d.    BL       __aeabi_i2d ; 0x4c8
        0x00001e00:    2301        .#      MOVS     r3,#1
        0x00001e02:    2200        ."      MOVS     r2,#0
        0x00001e04:    079b        ..      LSLS     r3,r3,#30
        0x00001e06:    f000f8dd    ....    BL       pow ; 0x1fc4
        0x00001e0a:    9101        ..      STR      r1,[sp,#4]
        0x00001e0c:    9000        ..      STR      r0,[sp,#0]
        0x00001e0e:    4669        iF      MOV      r1,sp
        0x00001e10:    2014        .       MOVS     r0,#0x14
        0x00001e12:    5e08        .^      LDRSH    r0,[r1,r0]
        0x00001e14:    f7fefb58    ..X.    BL       __aeabi_i2d ; 0x4c8
        0x00001e18:    2301        .#      MOVS     r3,#1
        0x00001e1a:    2200        ."      MOVS     r2,#0
        0x00001e1c:    079b        ..      LSLS     r3,r3,#30
        0x00001e1e:    f000f8d1    ....    BL       pow ; 0x1fc4
        0x00001e22:    9b01        ..      LDR      r3,[sp,#4]
        0x00001e24:    9a00        ..      LDR      r2,[sp,#0]
        0x00001e26:    f7fef9bd    ....    BL       __aeabi_dadd ; 0x1a4
        0x00001e2a:    f000fdc9    ....    BL       sqrt ; 0x29c0
        0x00001e2e:    9101        ..      STR      r1,[sp,#4]
        0x00001e30:    9000        ..      STR      r0,[sp,#0]
        0x00001e32:    4669        iF      MOV      r1,sp
        0x00001e34:    2010        .       MOVS     r0,#0x10
        0x00001e36:    5e08        .^      LDRSH    r0,[r1,r0]
        0x00001e38:    f7fefb46    ..F.    BL       __aeabi_i2d ; 0x4c8
        0x00001e3c:    9b01        ..      LDR      r3,[sp,#4]
        0x00001e3e:    9a00        ..      LDR      r2,[sp,#0]
        0x00001e40:    f7fefaca    ....    BL       __aeabi_ddiv ; 0x3d8
        0x00001e44:    f7fffd96    ....    BL       atan ; 0x1974
        0x00001e48:    2200        ."      MOVS     r2,#0
        0x00001e4a:    4b56        VK      LDR      r3,[pc,#344] ; [0x1fa4] = 0x40668000
        0x00001e4c:    f7fefa5c    ..\.    BL       __aeabi_dmul ; 0x308
        0x00001e50:    4a55        UJ      LDR      r2,[pc,#340] ; [0x1fa8] = 0x54442eea
        0x00001e52:    4b56        VK      LDR      r3,[pc,#344] ; [0x1fac] = 0x400921fb
        0x00001e54:    f7fefac0    ....    BL       __aeabi_ddiv ; 0x3d8
        0x00001e58:    f7fefb4a    ..J.    BL       __aeabi_d2f ; 0x4f0
        0x00001e5c:    9000        ..      STR      r0,[sp,#0]
        0x00001e5e:    4669        iF      MOV      r1,sp
        0x00001e60:    2018        .       MOVS     r0,#0x18
        0x00001e62:    5e08        .^      LDRSH    r0,[r1,r0]
        0x00001e64:    f7fefb30    ..0.    BL       __aeabi_i2d ; 0x4c8
        0x00001e68:    2301        .#      MOVS     r3,#1
        0x00001e6a:    2200        ."      MOVS     r2,#0
        0x00001e6c:    079b        ..      LSLS     r3,r3,#30
        0x00001e6e:    f000f8a9    ....    BL       pow ; 0x1fc4
        0x00001e72:    9103        ..      STR      r1,[sp,#0xc]
        0x00001e74:    9002        ..      STR      r0,[sp,#8]
        0x00001e76:    4669        iF      MOV      r1,sp
        0x00001e78:    2010        .       MOVS     r0,#0x10
        0x00001e7a:    5e08        .^      LDRSH    r0,[r1,r0]
        0x00001e7c:    f7fefb24    ..$.    BL       __aeabi_i2d ; 0x4c8
        0x00001e80:    2301        .#      MOVS     r3,#1
        0x00001e82:    2200        ."      MOVS     r2,#0
        0x00001e84:    079b        ..      LSLS     r3,r3,#30
        0x00001e86:    f000f89d    ....    BL       pow ; 0x1fc4
        0x00001e8a:    9b03        ..      LDR      r3,[sp,#0xc]
        0x00001e8c:    9a02        ..      LDR      r2,[sp,#8]
        0x00001e8e:    f7fef989    ....    BL       __aeabi_dadd ; 0x1a4
        0x00001e92:    f000fd95    ....    BL       sqrt ; 0x29c0
        0x00001e96:    9103        ..      STR      r1,[sp,#0xc]
        0x00001e98:    9002        ..      STR      r0,[sp,#8]
        0x00001e9a:    4669        iF      MOV      r1,sp
        0x00001e9c:    2014        .       MOVS     r0,#0x14
        0x00001e9e:    5e08        .^      LDRSH    r0,[r1,r0]
        0x00001ea0:    f7fefb12    ....    BL       __aeabi_i2d ; 0x4c8
        0x00001ea4:    9b03        ..      LDR      r3,[sp,#0xc]
        0x00001ea6:    9a02        ..      LDR      r2,[sp,#8]
        0x00001ea8:    f7fefa96    ....    BL       __aeabi_ddiv ; 0x3d8
        0x00001eac:    f7fffd62    ..b.    BL       atan ; 0x1974
        0x00001eb0:    2200        ."      MOVS     r2,#0
        0x00001eb2:    4b3c        <K      LDR      r3,[pc,#240] ; [0x1fa4] = 0x40668000
        0x00001eb4:    f7fefa28    ..(.    BL       __aeabi_dmul ; 0x308
        0x00001eb8:    4a3b        ;J      LDR      r2,[pc,#236] ; [0x1fa8] = 0x54442eea
        0x00001eba:    4b3c        <K      LDR      r3,[pc,#240] ; [0x1fac] = 0x400921fb
        0x00001ebc:    f7fefa8c    ....    BL       __aeabi_ddiv ; 0x3d8
        0x00001ec0:    f7fefb16    ....    BL       __aeabi_d2f ; 0x4f0
        0x00001ec4:    493a        :I      LDR      r1,[pc,#232] ; [0x1fb0] = 0xc0a00000
        0x00001ec6:    9a00        ..      LDR      r2,[sp,#0]
        0x00001ec8:    428a        .B      CMP      r2,r1
        0x00001eca:    d90f        ..      BLS      0x1eec ; main + 316
        0x00001ecc:    4a39        9J      LDR      r2,[pc,#228] ; [0x1fb4] = 0x40a00000
        0x00001ece:    4290        .B      CMP      r0,r2
        0x00001ed0:    dd01        ..      BLE      0x1ed6 ; main + 294
        0x00001ed2:    2501        .%      MOVS     r5,#1
        0x00001ed4:    178c        ..      ASRS     r4,r1,#30
        0x00001ed6:    4288        .B      CMP      r0,r1
        0x00001ed8:    d902        ..      BLS      0x1ee0 ; main + 304
        0x00001eda:    2500        .%      MOVS     r5,#0
        0x00001edc:    43ed        .C      MVNS     r5,r5
        0x00001ede:    462c        ,F      MOV      r4,r5
        0x00001ee0:    4290        .B      CMP      r0,r2
        0x00001ee2:    da03        ..      BGE      0x1eec ; main + 316
        0x00001ee4:    4288        .B      CMP      r0,r1
        0x00001ee6:    d201        ..      BCS      0x1eec ; main + 316
        0x00001ee8:    2500        .%      MOVS     r5,#0
        0x00001eea:    1e6c        l.      SUBS     r4,r5,#1
        0x00001eec:    4a31        1J      LDR      r2,[pc,#196] ; [0x1fb4] = 0x40a00000
        0x00001eee:    9b00        ..      LDR      r3,[sp,#0]
        0x00001ef0:    4293        .B      CMP      r3,r2
        0x00001ef2:    dd0e        ..      BLE      0x1f12 ; main + 354
        0x00001ef4:    4290        .B      CMP      r0,r2
        0x00001ef6:    dd01        ..      BLE      0x1efc ; main + 332
        0x00001ef8:    2501        .%      MOVS     r5,#1
        0x00001efa:    462c        ,F      MOV      r4,r5
        0x00001efc:    4288        .B      CMP      r0,r1
        0x00001efe:    d902        ..      BLS      0x1f06 ; main + 342
        0x00001f00:    2500        .%      MOVS     r5,#0
        0x00001f02:    43ed        .C      MVNS     r5,r5
        0x00001f04:    2401        .$      MOVS     r4,#1
        0x00001f06:    4290        .B      CMP      r0,r2
        0x00001f08:    da03        ..      BGE      0x1f12 ; main + 354
        0x00001f0a:    4288        .B      CMP      r0,r1
        0x00001f0c:    d201        ..      BCS      0x1f12 ; main + 354
        0x00001f0e:    2500        .%      MOVS     r5,#0
        0x00001f10:    2401        .$      MOVS     r4,#1
        0x00001f12:    4293        .B      CMP      r3,r2
        0x00001f14:    da10        ..      BGE      0x1f38 ; main + 392
        0x00001f16:    428b        .B      CMP      r3,r1
        0x00001f18:    d20e        ..      BCS      0x1f38 ; main + 392
        0x00001f1a:    4290        .B      CMP      r0,r2
        0x00001f1c:    dd01        ..      BLE      0x1f22 ; main + 370
        0x00001f1e:    2501        .%      MOVS     r5,#1
        0x00001f20:    2400        .$      MOVS     r4,#0
        0x00001f22:    4288        .B      CMP      r0,r1
        0x00001f24:    d902        ..      BLS      0x1f2c ; main + 380
        0x00001f26:    2500        .%      MOVS     r5,#0
        0x00001f28:    43ed        .C      MVNS     r5,r5
        0x00001f2a:    2400        .$      MOVS     r4,#0
        0x00001f2c:    4290        .B      CMP      r0,r2
        0x00001f2e:    da03        ..      BGE      0x1f38 ; main + 392
        0x00001f30:    4288        .B      CMP      r0,r1
        0x00001f32:    d201        ..      BCS      0x1f38 ; main + 392
        0x00001f34:    2500        .%      MOVS     r5,#0
        0x00001f36:    462c        ,F      MOV      r4,r5
        0x00001f38:    9808        ..      LDR      r0,[sp,#0x20]
        0x00001f3a:    4368        hC      MULS     r0,r5,r0
        0x00001f3c:    19c0        ..      ADDS     r0,r0,r7
        0x00001f3e:    b247        G.      SXTB     r7,r0
        0x00001f40:    9807        ..      LDR      r0,[sp,#0x1c]
        0x00001f42:    4360        `C      MULS     r0,r4,r0
        0x00001f44:    1980        ..      ADDS     r0,r0,r6
        0x00001f46:    b246        F.      SXTB     r6,r0
        0x00001f48:    2f00        ./      CMP      r7,#0
        0x00001f4a:    dc01        ..      BGT      0x1f50 ; main + 416
        0x00001f4c:    2700        .'      MOVS     r7,#0
        0x00001f4e:    e002        ..      B        0x1f56 ; main + 422
        0x00001f50:    2f70        p/      CMP      r7,#0x70
        0x00001f52:    db00        ..      BLT      0x1f56 ; main + 422
        0x00001f54:    2770        p'      MOVS     r7,#0x70
        0x00001f56:    2e00        ..      CMP      r6,#0
        0x00001f58:    dc01        ..      BGT      0x1f5e ; main + 430
        0x00001f5a:    2600        .&      MOVS     r6,#0
        0x00001f5c:    e002        ..      B        0x1f64 ; main + 436
        0x00001f5e:    2e30        0.      CMP      r6,#0x30
        0x00001f60:    db00        ..      BLT      0x1f64 ; main + 436
        0x00001f62:    2630        0&      MOVS     r6,#0x30
        0x00001f64:    f7fffe14    ....    BL       clear_LCD ; 0x1b90
        0x00001f68:    480c        .H      LDR      r0,[pc,#48] ; [0x1f9c] = 0x20000034
        0x00001f6a:    9000        ..      STR      r0,[sp,#0]
        0x00001f6c:    2300        .#      MOVS     r3,#0
        0x00001f6e:    4a0c        .J      LDR      r2,[pc,#48] ; [0x1fa0] = 0xffff
        0x00001f70:    4631        1F      MOV      r1,r6
        0x00001f72:    4638        8F      MOV      r0,r7
        0x00001f74:    f7fffe36    ..6.    BL       draw_Bmp16x16 ; 0x1be4
        0x00001f78:    480f        .H      LDR      r0,[pc,#60] ; [0x1fb8] = 0x20000004
        0x00001f7a:    6801        .h      LDR      r1,[r0,#0]
        0x00001f7c:    480f        .H      LDR      r0,[pc,#60] ; [0x1fbc] = 0x186a0
        0x00001f7e:    4341        AC      MULS     r1,r0,r1
        0x00001f80:    480f        .H      LDR      r0,[pc,#60] ; [0x1fc0] = 0xe000e000
        0x00001f82:    6141        Aa      STR      r1,[r0,#0x14]
        0x00001f84:    2200        ."      MOVS     r2,#0
        0x00001f86:    6182        .a      STR      r2,[r0,#0x18]
        0x00001f88:    2105        .!      MOVS     r1,#5
        0x00001f8a:    6101        .a      STR      r1,[r0,#0x10]
        0x00001f8c:    6901        .i      LDR      r1,[r0,#0x10]
        0x00001f8e:    03c9        ..      LSLS     r1,r1,#15
        0x00001f90:    d5fc        ..      BPL      0x1f8c ; main + 476
        0x00001f92:    6102        .a      STR      r2,[r0,#0x10]
        0x00001f94:    e72a        *.      B        0x1dec ; main + 60
    $d
        0x00001f96:    0000        ..      DCW    0
        0x00001f98:    00061a80    ....    DCD    400000
        0x00001f9c:    20000034    4..     DCD    536870964
        0x00001fa0:    0000ffff    ....    DCD    65535
        0x00001fa4:    40668000    ..f@    DCD    1080459264
        0x00001fa8:    54442eea    ..DT    DCD    1413754602
        0x00001fac:    400921fb    .!.@    DCD    1074340347
        0x00001fb0:    c0a00000    ....    DCD    3231711232
        0x00001fb4:    40a00000    ...@    DCD    1084227584
        0x00001fb8:    20000004    ...     DCD    536870916
        0x00001fbc:    000186a0    ....    DCD    100000
        0x00001fc0:    e000e000    ....    DCD    3758153728
    $t
    i.pow
    pow
        0x00001fc4:    b5f0        ..      PUSH     {r4-r7,lr}
        0x00001fc6:    b41f        ..      PUSH     {r0-r4}
        0x00001fc8:    b096        ..      SUB      sp,sp,#0x58
        0x00001fca:    4684        .F      MOV      r12,r0
        0x00001fcc:    460c        .F      MOV      r4,r1
        0x00001fce:    4602        .F      MOV      r2,r0
        0x00001fd0:    9d19        ..      LDR      r5,[sp,#0x64]
        0x00001fd2:    9818        ..      LDR      r0,[sp,#0x60]
        0x00001fd4:    9003        ..      STR      r0,[sp,#0xc]
        0x00001fd6:    0049        I.      LSLS     r1,r1,#1
        0x00001fd8:    0068        h.      LSLS     r0,r5,#1
        0x00001fda:    0063        c.      LSLS     r3,r4,#1
        0x00001fdc:    0849        I.      LSRS     r1,r1,#1
        0x00001fde:    0840        @.      LSRS     r0,r0,#1
        0x00001fe0:    9301        ..      STR      r3,[sp,#4]
        0x00001fe2:    2a00        .*      CMP      r2,#0
        0x00001fe4:    d001        ..      BEQ      0x1fea ; pow + 38
        0x00001fe6:    2601        .&      MOVS     r6,#1
        0x00001fe8:    e000        ..      B        0x1fec ; pow + 40
        0x00001fea:    2600        .&      MOVS     r6,#0
        0x00001fec:    199e        ..      ADDS     r6,r3,r6
        0x00001fee:    4bfe        .K      LDR      r3,[pc,#1016] ; [0x23e8] = 0x1fffff
        0x00001ff0:    18f6        ..      ADDS     r6,r6,r3
        0x00001ff2:    105b        [.      ASRS     r3,r3,#1
        0x00001ff4:    429e        .B      CMP      r6,r3
        0x00001ff6:    d32b        +.      BCC      0x2050 ; pow + 140
        0x00001ff8:    006e        n.      LSLS     r6,r5,#1
        0x00001ffa:    9f03        ..      LDR      r7,[sp,#0xc]
        0x00001ffc:    9602        ..      STR      r6,[sp,#8]
        0x00001ffe:    2f00        ./      CMP      r7,#0
        0x00002000:    d000        ..      BEQ      0x2004 ; pow + 64
        0x00002002:    2701        .'      MOVS     r7,#1
        0x00002004:    19f7        ..      ADDS     r7,r6,r7
        0x00002006:    4ef8        .N      LDR      r6,[pc,#992] ; [0x23e8] = 0x1fffff
        0x00002008:    4bf8        .K      LDR      r3,[pc,#992] ; [0x23ec] = 0xfffff
        0x0000200a:    19be        ..      ADDS     r6,r7,r6
        0x0000200c:    429e        .B      CMP      r6,r3
        0x0000200e:    d31f        ..      BCC      0x2050 ; pow + 140
        0x00002010:    9e03        ..      LDR      r6,[sp,#0xc]
        0x00002012:    4603        .F      MOV      r3,r0
        0x00002014:    4ff6        .O      LDR      r7,[pc,#984] ; [0x23f0] = 0x3ff00000
        0x00002016:    4333        3C      ORRS     r3,r3,r6
        0x00002018:    d009        ..      BEQ      0x202e ; pow + 106
        0x0000201a:    463b        ;F      MOV      r3,r7
        0x0000201c:    429c        .B      CMP      r4,r3
        0x0000201e:    d101        ..      BNE      0x2024 ; pow + 96
        0x00002020:    2a00        .*      CMP      r2,#0
        0x00002022:    d004        ..      BEQ      0x202e ; pow + 106
        0x00002024:    9b01        ..      LDR      r3,[sp,#4]
        0x00002026:    2a00        .*      CMP      r2,#0
        0x00002028:    d005        ..      BEQ      0x2036 ; pow + 114
        0x0000202a:    2601        .&      MOVS     r6,#1
        0x0000202c:    e004        ..      B        0x2038 ; pow + 116
        0x0000202e:    2000        .       MOVS     r0,#0
        0x00002030:    4639        9F      MOV      r1,r7
        0x00002032:    b01b        ..      ADD      sp,sp,#0x6c
        0x00002034:    bdf0        ..      POP      {r4-r7,pc}
        0x00002036:    2600        .&      MOVS     r6,#0
        0x00002038:    199e        ..      ADDS     r6,r3,r6
        0x0000203a:    4bee        .K      LDR      r3,[pc,#952] ; [0x23f4] = 0xffe00000
        0x0000203c:    429e        .B      CMP      r6,r3
        0x0000203e:    d807        ..      BHI      0x2050 ; pow + 140
        0x00002040:    9f03        ..      LDR      r7,[sp,#0xc]
        0x00002042:    9e02        ..      LDR      r6,[sp,#8]
        0x00002044:    2f00        ./      CMP      r7,#0
        0x00002046:    d000        ..      BEQ      0x204a ; pow + 134
        0x00002048:    2701        .'      MOVS     r7,#1
        0x0000204a:    19f6        ..      ADDS     r6,r6,r7
        0x0000204c:    429e        .B      CMP      r6,r3
        0x0000204e:    d907        ..      BLS      0x2060 ; pow + 156
        0x00002050:    462b        +F      MOV      r3,r5
        0x00002052:    4660        `F      MOV      r0,r12
        0x00002054:    4621        !F      MOV      r1,r4
        0x00002056:    9a18        ..      LDR      r2,[sp,#0x60]
        0x00002058:    f7fffae7    ....    BL       __mathlib_dbl_infnan2 ; 0x162a
        0x0000205c:    b01b        ..      ADD      sp,sp,#0x6c
        0x0000205e:    bdf0        ..      POP      {r4-r7,pc}
        0x00002060:    2300        .#      MOVS     r3,#0
        0x00002062:    2c00        .,      CMP      r4,#0
        0x00002064:    da29        ).      BGE      0x20ba ; pow + 246
        0x00002066:    4ee4        .N      LDR      r6,[pc,#912] ; [0x23f8] = 0x7ff00000
        0x00002068:    42b0        .B      CMP      r0,r6
        0x0000206a:    da26        &.      BGE      0x20ba ; pow + 246
        0x0000206c:    4ee3        .N      LDR      r6,[pc,#908] ; [0x23fc] = 0x43400000
        0x0000206e:    42b0        .B      CMP      r0,r6
        0x00002070:    db01        ..      BLT      0x2076 ; pow + 178
        0x00002072:    2302        .#      MOVS     r3,#2
        0x00002074:    e021        !.      B        0x20ba ; pow + 246
        0x00002076:    4ede        .N      LDR      r6,[pc,#888] ; [0x23f0] = 0x3ff00000
        0x00002078:    42b0        .B      CMP      r0,r6
        0x0000207a:    db1e        ..      BLT      0x20ba ; pow + 246
        0x0000207c:    4ee0        .N      LDR      r6,[pc,#896] ; [0x2400] = 0xfffffc01
        0x0000207e:    0d07        ..      LSRS     r7,r0,#20
        0x00002080:    19be        ..      ADDS     r6,r7,r6
        0x00002082:    2e14        ..      CMP      r6,#0x14
        0x00002084:    dd09        ..      BLE      0x209a ; pow + 214
        0x00002086:    2734        4'      MOVS     r7,#0x34
        0x00002088:    1bbf        ..      SUBS     r7,r7,r6
        0x0000208a:    9e03        ..      LDR      r6,[sp,#0xc]
        0x0000208c:    40fe        .@      LSRS     r6,r6,r7
        0x0000208e:    9601        ..      STR      r6,[sp,#4]
        0x00002090:    40be        .@      LSLS     r6,r6,r7
        0x00002092:    9f03        ..      LDR      r7,[sp,#0xc]
        0x00002094:    42be        .B      CMP      r6,r7
        0x00002096:    d00b        ..      BEQ      0x20b0 ; pow + 236
        0x00002098:    e00f        ..      B        0x20ba ; pow + 246
        0x0000209a:    9f03        ..      LDR      r7,[sp,#0xc]
        0x0000209c:    2f00        ./      CMP      r7,#0
        0x0000209e:    d10c        ..      BNE      0x20ba ; pow + 246
        0x000020a0:    2714        .'      MOVS     r7,#0x14
        0x000020a2:    1bbf        ..      SUBS     r7,r7,r6
        0x000020a4:    4606        .F      MOV      r6,r0
        0x000020a6:    40fe        .@      LSRS     r6,r6,r7
        0x000020a8:    9601        ..      STR      r6,[sp,#4]
        0x000020aa:    40be        .@      LSLS     r6,r6,r7
        0x000020ac:    4286        .B      CMP      r6,r0
        0x000020ae:    d104        ..      BNE      0x20ba ; pow + 246
        0x000020b0:    9b01        ..      LDR      r3,[sp,#4]
        0x000020b2:    07de        ..      LSLS     r6,r3,#31
        0x000020b4:    0ff6        ..      LSRS     r6,r6,#31
        0x000020b6:    2302        .#      MOVS     r3,#2
        0x000020b8:    1b9b        ..      SUBS     r3,r3,r6
        0x000020ba:    460e        .F      MOV      r6,r1
        0x000020bc:    4316        .C      ORRS     r6,r6,r2
        0x000020be:    d118        ..      BNE      0x20f2 ; pow + 302
        0x000020c0:    2d00        .-      CMP      r5,#0
        0x000020c2:    da16        ..      BGE      0x20f2 ; pow + 302
        0x000020c4:    2c00        .,      CMP      r4,#0
        0x000020c6:    d003        ..      BEQ      0x20d0 ; pow + 268
        0x000020c8:    2b02        .+      CMP      r3,#2
        0x000020ca:    d001        ..      BEQ      0x20d0 ; pow + 268
        0x000020cc:    2b01        .+      CMP      r3,#1
        0x000020ce:    d006        ..      BEQ      0x20de ; pow + 282
        0x000020d0:    2002        .       MOVS     r0,#2
        0x000020d2:    f7fffadb    ....    BL       __set_errno ; 0x168c
        0x000020d6:    f7fffa99    ....    BL       __mathlib_dbl_divzero ; 0x160c
        0x000020da:    b01b        ..      ADD      sp,sp,#0x6c
        0x000020dc:    bdf0        ..      POP      {r4-r7,pc}
        0x000020de:    2002        .       MOVS     r0,#2
        0x000020e0:    f7fffad4    ....    BL       __set_errno ; 0x168c
        0x000020e4:    f7fffa92    ....    BL       __mathlib_dbl_divzero ; 0x160c
        0x000020e8:    2201        ."      MOVS     r2,#1
        0x000020ea:    07d2        ..      LSLS     r2,r2,#31
        0x000020ec:    4051        Q@      EORS     r1,r1,r2
        0x000020ee:    b01b        ..      ADD      sp,sp,#0x6c
        0x000020f0:    bdf0        ..      POP      {r4-r7,pc}
        0x000020f2:    9e03        ..      LDR      r6,[sp,#0xc]
        0x000020f4:    2e00        ..      CMP      r6,#0
        0x000020f6:    d161        a.      BNE      0x21bc ; pow + 504
        0x000020f8:    4ebf        .N      LDR      r6,[pc,#764] ; [0x23f8] = 0x7ff00000
        0x000020fa:    42b0        .B      CMP      r0,r6
        0x000020fc:    d120         .      BNE      0x2140 ; pow + 380
        0x000020fe:    48c1        .H      LDR      r0,[pc,#772] ; [0x2404] = 0xbff00000
        0x00002100:    4284        .B      CMP      r4,r0
        0x00002102:    d101        ..      BNE      0x2108 ; pow + 324
        0x00002104:    2a00        .*      CMP      r2,#0
        0x00002106:    d008        ..      BEQ      0x211a ; pow + 342
        0x00002108:    48b9        .H      LDR      r0,[pc,#740] ; [0x23f0] = 0x3ff00000
        0x0000210a:    4281        .B      CMP      r1,r0
        0x0000210c:    db09        ..      BLT      0x2122 ; pow + 350
        0x0000210e:    2d00        .-      CMP      r5,#0
        0x00002110:    db10        ..      BLT      0x2134 ; pow + 368
        0x00002112:    9818        ..      LDR      r0,[sp,#0x60]
        0x00002114:    4629        )F      MOV      r1,r5
        0x00002116:    b01b        ..      ADD      sp,sp,#0x6c
        0x00002118:    bdf0        ..      POP      {r4-r7,pc}
        0x0000211a:    2000        .       MOVS     r0,#0
        0x0000211c:    49b4        .I      LDR      r1,[pc,#720] ; [0x23f0] = 0x3ff00000
        0x0000211e:    b01b        ..      ADD      sp,sp,#0x6c
        0x00002120:    bdf0        ..      POP      {r4-r7,pc}
        0x00002122:    2d00        .-      CMP      r5,#0
        0x00002124:    da06        ..      BGE      0x2134 ; pow + 368
        0x00002126:    2201        ."      MOVS     r2,#1
        0x00002128:    4629        )F      MOV      r1,r5
        0x0000212a:    07d2        ..      LSLS     r2,r2,#31
        0x0000212c:    9818        ..      LDR      r0,[sp,#0x60]
        0x0000212e:    4051        Q@      EORS     r1,r1,r2
        0x00002130:    b01b        ..      ADD      sp,sp,#0x6c
        0x00002132:    bdf0        ..      POP      {r4-r7,pc}
        0x00002134:    49b4        .I      LDR      r1,[pc,#720] ; [0x2408] = 0xace
        0x00002136:    4479        yD      ADD      r1,r1,pc
        0x00002138:    6808        .h      LDR      r0,[r1,#0]
        0x0000213a:    6849        Ih      LDR      r1,[r1,#4]
        0x0000213c:    b01b        ..      ADD      sp,sp,#0x6c
        0x0000213e:    bdf0        ..      POP      {r4-r7,pc}
        0x00002140:    4fab        .O      LDR      r7,[pc,#684] ; [0x23f0] = 0x3ff00000
        0x00002142:    42b8        .B      CMP      r0,r7
        0x00002144:    d125        %.      BNE      0x2192 ; pow + 462
        0x00002146:    2d00        .-      CMP      r5,#0
        0x00002148:    da1f        ..      BGE      0x218a ; pow + 454
        0x0000214a:    2900        .)      CMP      r1,#0
        0x0000214c:    d004        ..      BEQ      0x2158 ; pow + 404
        0x0000214e:    42b1        .B      CMP      r1,r6
        0x00002150:    d112        ..      BNE      0x2178 ; pow + 436
        0x00002152:    2a00        .*      CMP      r2,#0
        0x00002154:    d009        ..      BEQ      0x216a ; pow + 422
        0x00002156:    e018        ..      B        0x218a ; pow + 454
        0x00002158:    2a00        .*      CMP      r2,#0
        0x0000215a:    d172        r.      BNE      0x2242 ; pow + 638
        0x0000215c:    49a6        .I      LDR      r1,[pc,#664] ; [0x23f8] = 0x7ff00000
        0x0000215e:    0fe2        ..      LSRS     r2,r4,#31
        0x00002160:    2000        .       MOVS     r0,#0
        0x00002162:    07d2        ..      LSLS     r2,r2,#31
        0x00002164:    4311        .C      ORRS     r1,r1,r2
        0x00002166:    b01b        ..      ADD      sp,sp,#0x6c
        0x00002168:    bdf0        ..      POP      {r4-r7,pc}
        0x0000216a:    2000        .       MOVS     r0,#0
        0x0000216c:    0fe2        ..      LSRS     r2,r4,#31
        0x0000216e:    4601        .F      MOV      r1,r0
        0x00002170:    07d2        ..      LSLS     r2,r2,#31
        0x00002172:    4311        .C      ORRS     r1,r1,r2
        0x00002174:    b01b        ..      ADD      sp,sp,#0x6c
        0x00002176:    bdf0        ..      POP      {r4-r7,pc}
        0x00002178:    42b1        .B      CMP      r1,r6
        0x0000217a:    da06        ..      BGE      0x218a ; pow + 454
        0x0000217c:    4623        #F      MOV      r3,r4
        0x0000217e:    2000        .       MOVS     r0,#0
        0x00002180:    4639        9F      MOV      r1,r7
        0x00002182:    f7fef929    ..).    BL       __aeabi_ddiv ; 0x3d8
        0x00002186:    b01b        ..      ADD      sp,sp,#0x6c
        0x00002188:    bdf0        ..      POP      {r4-r7,pc}
        0x0000218a:    4610        .F      MOV      r0,r2
        0x0000218c:    4621        !F      MOV      r1,r4
        0x0000218e:    b01b        ..      ADD      sp,sp,#0x6c
        0x00002190:    bdf0        ..      POP      {r4-r7,pc}
        0x00002192:    42b1        .B      CMP      r1,r6
        0x00002194:    da12        ..      BGE      0x21bc ; pow + 504
        0x00002196:    2601        .&      MOVS     r6,#1
        0x00002198:    07b6        ..      LSLS     r6,r6,#30
        0x0000219a:    42b5        .B      CMP      r5,r6
        0x0000219c:    d103        ..      BNE      0x21a6 ; pow + 482
        0x0000219e:    4623        #F      MOV      r3,r4
        0x000021a0:    4610        .F      MOV      r0,r2
        0x000021a2:    4619        .F      MOV      r1,r3
        0x000021a4:    e3fe        ..      B        0x29a4 ; pow + 2528
        0x000021a6:    4e99        .N      LDR      r6,[pc,#612] ; [0x240c] = 0x3fe00000
        0x000021a8:    42b5        .B      CMP      r5,r6
        0x000021aa:    d107        ..      BNE      0x21bc ; pow + 504
        0x000021ac:    1e26        &.      SUBS     r6,r4,#0
        0x000021ae:    db05        ..      BLT      0x21bc ; pow + 504
        0x000021b0:    4610        .F      MOV      r0,r2
        0x000021b2:    4631        1F      MOV      r1,r6
        0x000021b4:    f000fc04    ....    BL       sqrt ; 0x29c0
        0x000021b8:    b01b        ..      ADD      sp,sp,#0x6c
        0x000021ba:    bdf0        ..      POP      {r4-r7,pc}
        0x000021bc:    0067        g.      LSLS     r7,r4,#1
        0x000021be:    087f        ..      LSRS     r7,r7,#1
        0x000021c0:    4616        .F      MOV      r6,r2
        0x000021c2:    2a00        .*      CMP      r2,#0
        0x000021c4:    d140        @.      BNE      0x2248 ; pow + 644
        0x000021c6:    2900        .)      CMP      r1,#0
        0x000021c8:    d00a        ..      BEQ      0x21e0 ; pow + 540
        0x000021ca:    4a8b        .J      LDR      r2,[pc,#556] ; [0x23f8] = 0x7ff00000
        0x000021cc:    4291        .B      CMP      r1,r2
        0x000021ce:    d129        ).      BNE      0x2224 ; pow + 608
        0x000021d0:    2c00        .,      CMP      r4,#0
        0x000021d2:    dd0e        ..      BLE      0x21f2 ; pow + 558
        0x000021d4:    2d00        .-      CMP      r5,#0
        0x000021d6:    db1c        ..      BLT      0x2212 ; pow + 590
        0x000021d8:    2000        .       MOVS     r0,#0
        0x000021da:    4611        .F      MOV      r1,r2
        0x000021dc:    b01b        ..      ADD      sp,sp,#0x6c
        0x000021de:    bdf0        ..      POP      {r4-r7,pc}
        0x000021e0:    2b02        .+      CMP      r3,#2
        0x000021e2:    d016        ..      BEQ      0x2212 ; pow + 590
        0x000021e4:    2c00        .,      CMP      r4,#0
        0x000021e6:    d014        ..      BEQ      0x2212 ; pow + 590
        0x000021e8:    2b01        .+      CMP      r3,#1
        0x000021ea:    d112        ..      BNE      0x2212 ; pow + 590
        0x000021ec:    2c00        .,      CMP      r4,#0
        0x000021ee:    db14        ..      BLT      0x221a ; pow + 598
        0x000021f0:    e00f        ..      B        0x2212 ; pow + 590
        0x000021f2:    2c00        .,      CMP      r4,#0
        0x000021f4:    da28        (.      BGE      0x2248 ; pow + 644
        0x000021f6:    2d00        .-      CMP      r5,#0
        0x000021f8:    db09        ..      BLT      0x220e ; pow + 586
        0x000021fa:    2b01        .+      CMP      r3,#1
        0x000021fc:    d003        ..      BEQ      0x2206 ; pow + 578
        0x000021fe:    2000        .       MOVS     r0,#0
        0x00002200:    497d        }I      LDR      r1,[pc,#500] ; [0x23f8] = 0x7ff00000
        0x00002202:    b01b        ..      ADD      sp,sp,#0x6c
        0x00002204:    bdf0        ..      POP      {r4-r7,pc}
        0x00002206:    2000        .       MOVS     r0,#0
        0x00002208:    4981        .I      LDR      r1,[pc,#516] ; [0x2410] = 0xfff00000
        0x0000220a:    b01b        ..      ADD      sp,sp,#0x6c
        0x0000220c:    bdf0        ..      POP      {r4-r7,pc}
        0x0000220e:    2b01        .+      CMP      r3,#1
        0x00002210:    d003        ..      BEQ      0x221a ; pow + 598
        0x00002212:    2000        .       MOVS     r0,#0
        0x00002214:    4601        .F      MOV      r1,r0
        0x00002216:    b01b        ..      ADD      sp,sp,#0x6c
        0x00002218:    bdf0        ..      POP      {r4-r7,pc}
        0x0000221a:    2000        .       MOVS     r0,#0
        0x0000221c:    2101        .!      MOVS     r1,#1
        0x0000221e:    07c9        ..      LSLS     r1,r1,#31
        0x00002220:    b01b        ..      ADD      sp,sp,#0x6c
        0x00002222:    bdf0        ..      POP      {r4-r7,pc}
        0x00002224:    4a72        rJ      LDR      r2,[pc,#456] ; [0x23f0] = 0x3ff00000
        0x00002226:    4291        .B      CMP      r1,r2
        0x00002228:    d10e        ..      BNE      0x2248 ; pow + 644
        0x0000222a:    2c00        .,      CMP      r4,#0
        0x0000222c:    da01        ..      BGE      0x2232 ; pow + 622
        0x0000222e:    2b00        .+      CMP      r3,#0
        0x00002230:    d017        ..      BEQ      0x2262 ; pow + 670
        0x00002232:    2b02        .+      CMP      r3,#2
        0x00002234:    d006        ..      BEQ      0x2244 ; pow + 640
        0x00002236:    2000        .       MOVS     r0,#0
        0x00002238:    43c0        .C      MVNS     r0,r0
        0x0000223a:    f7fef945    ..E.    BL       __aeabi_i2d ; 0x4c8
        0x0000223e:    b01b        ..      ADD      sp,sp,#0x6c
        0x00002240:    bdf0        ..      POP      {r4-r7,pc}
        0x00002242:    e290        ..      B        0x2766 ; pow + 1954
        0x00002244:    2001        .       MOVS     r0,#1
        0x00002246:    e7f8        ..      B        0x223a ; pow + 630
        0x00002248:    17e2        ..      ASRS     r2,r4,#31
        0x0000224a:    1c52        R.      ADDS     r2,r2,#1
        0x0000224c:    4694        .F      MOV      r12,r2
        0x0000224e:    431a        .C      ORRS     r2,r2,r3
        0x00002250:    d007        ..      BEQ      0x2262 ; pow + 670
        0x00002252:    2200        ."      MOVS     r2,#0
        0x00002254:    9208        ..      STR      r2,[sp,#0x20]
        0x00002256:    4c66        fL      LDR      r4,[pc,#408] ; [0x23f0] = 0x3ff00000
        0x00002258:    4662        bF      MOV      r2,r12
        0x0000225a:    1e5b        [.      SUBS     r3,r3,#1
        0x0000225c:    431a        .C      ORRS     r2,r2,r3
        0x0000225e:    d007        ..      BEQ      0x2270 ; pow + 684
        0x00002260:    e009        ..      B        0x2276 ; pow + 690
        0x00002262:    2001        .       MOVS     r0,#1
        0x00002264:    f7fffa12    ....    BL       __set_errno ; 0x168c
        0x00002268:    f7fff9e3    ....    BL       __mathlib_dbl_invalid ; 0x1632
        0x0000226c:    b01b        ..      ADD      sp,sp,#0x6c
        0x0000226e:    bdf0        ..      POP      {r4-r7,pc}
        0x00002270:    2200        ."      MOVS     r2,#0
        0x00002272:    4c64        dL      LDR      r4,[pc,#400] ; [0x2404] = 0xbff00000
        0x00002274:    9208        ..      STR      r2,[sp,#0x20]
        0x00002276:    4a67        gJ      LDR      r2,[pc,#412] ; [0x2414] = 0x41e00000
        0x00002278:    4290        .B      CMP      r0,r2
        0x0000227a:    dd7d        }.      BLE      0x2378 ; pow + 948
        0x0000227c:    4b66        fK      LDR      r3,[pc,#408] ; [0x2418] = 0x43f00000
        0x0000227e:    4a67        gJ      LDR      r2,[pc,#412] ; [0x241c] = 0x3fefffff
        0x00002280:    4298        .B      CMP      r0,r3
        0x00002282:    dd1f        ..      BLE      0x22c4 ; pow + 768
        0x00002284:    4291        .B      CMP      r1,r2
        0x00002286:    dc02        ..      BGT      0x228e ; pow + 714
        0x00002288:    2d00        .-      CMP      r5,#0
        0x0000228a:    db05        ..      BLT      0x2298 ; pow + 724
        0x0000228c:    e04d        M.      B        0x232a ; pow + 870
        0x0000228e:    4858        XH      LDR      r0,[pc,#352] ; [0x23f0] = 0x3ff00000
        0x00002290:    4281        .B      CMP      r1,r0
        0x00002292:    db17        ..      BLT      0x22c4 ; pow + 768
        0x00002294:    2d00        .-      CMP      r5,#0
        0x00002296:    dd48        H.      BLE      0x232a ; pow + 870
        0x00002298:    2002        .       MOVS     r0,#2
        0x0000229a:    f7fff9f7    ....    BL       __set_errno ; 0x168c
        0x0000229e:    f7fff9d1    ....    BL       __mathlib_dbl_overflow ; 0x1644
        0x000022a2:    4605        .F      MOV      r5,r0
        0x000022a4:    460e        .F      MOV      r6,r1
        0x000022a6:    2200        ."      MOVS     r2,#0
        0x000022a8:    4b53        SK      LDR      r3,[pc,#332] ; [0x23f8] = 0x7ff00000
        0x000022aa:    4621        !F      MOV      r1,r4
        0x000022ac:    9808        ..      LDR      r0,[sp,#0x20]
        0x000022ae:    f7fef82b    ..+.    BL       __aeabi_dmul ; 0x308
        0x000022b2:    4608        .F      MOV      r0,r1
        0x000022b4:    0071        q.      LSLS     r1,r6,#1
        0x000022b6:    0849        I.      LSRS     r1,r1,#1
        0x000022b8:    0fc0        ..      LSRS     r0,r0,#31
        0x000022ba:    07c0        ..      LSLS     r0,r0,#31
        0x000022bc:    4301        .C      ORRS     r1,r1,r0
        0x000022be:    4628        (F      MOV      r0,r5
        0x000022c0:    b01b        ..      ADD      sp,sp,#0x6c
        0x000022c2:    bdf0        ..      POP      {r4-r7,pc}
        0x000022c4:    4291        .B      CMP      r1,r2
        0x000022c6:    da15        ..      BGE      0x22f4 ; pow + 816
        0x000022c8:    2d00        .-      CMP      r5,#0
        0x000022ca:    da2e        ..      BGE      0x232a ; pow + 870
        0x000022cc:    2002        .       MOVS     r0,#2
        0x000022ce:    f7fff9dd    ....    BL       __set_errno ; 0x168c
        0x000022d2:    f7fff9b7    ....    BL       __mathlib_dbl_overflow ; 0x1644
        0x000022d6:    4605        .F      MOV      r5,r0
        0x000022d8:    460e        .F      MOV      r6,r1
        0x000022da:    2200        ."      MOVS     r2,#0
        0x000022dc:    4b46        FK      LDR      r3,[pc,#280] ; [0x23f8] = 0x7ff00000
        0x000022de:    4621        !F      MOV      r1,r4
        0x000022e0:    9808        ..      LDR      r0,[sp,#0x20]
        0x000022e2:    f7fef811    ....    BL       __aeabi_dmul ; 0x308
        0x000022e6:    0072        r.      LSLS     r2,r6,#1
        0x000022e8:    0852        R.      LSRS     r2,r2,#1
        0x000022ea:    0fc8        ..      LSRS     r0,r1,#31
        0x000022ec:    07c0        ..      LSLS     r0,r0,#31
        0x000022ee:    4302        .C      ORRS     r2,r2,r0
        0x000022f0:    4611        .F      MOV      r1,r2
        0x000022f2:    e017        ..      B        0x2324 ; pow + 864
        0x000022f4:    4b3e        >K      LDR      r3,[pc,#248] ; [0x23f0] = 0x3ff00000
        0x000022f6:    4299        .B      CMP      r1,r3
        0x000022f8:    dd23        #.      BLE      0x2342 ; pow + 894
        0x000022fa:    2d00        .-      CMP      r5,#0
        0x000022fc:    dd15        ..      BLE      0x232a ; pow + 870
        0x000022fe:    2002        .       MOVS     r0,#2
        0x00002300:    f7fff9c4    ....    BL       __set_errno ; 0x168c
        0x00002304:    f7fff99e    ....    BL       __mathlib_dbl_overflow ; 0x1644
        0x00002308:    4605        .F      MOV      r5,r0
        0x0000230a:    460e        .F      MOV      r6,r1
        0x0000230c:    2200        ."      MOVS     r2,#0
        0x0000230e:    4b3a        :K      LDR      r3,[pc,#232] ; [0x23f8] = 0x7ff00000
        0x00002310:    4621        !F      MOV      r1,r4
        0x00002312:    9808        ..      LDR      r0,[sp,#0x20]
        0x00002314:    f7fdfff8    ....    BL       __aeabi_dmul ; 0x308
        0x00002318:    4608        .F      MOV      r0,r1
        0x0000231a:    0071        q.      LSLS     r1,r6,#1
        0x0000231c:    0849        I.      LSRS     r1,r1,#1
        0x0000231e:    0fc0        ..      LSRS     r0,r0,#31
        0x00002320:    07c0        ..      LSLS     r0,r0,#31
        0x00002322:    4301        .C      ORRS     r1,r1,r0
        0x00002324:    4628        (F      MOV      r0,r5
        0x00002326:    b01b        ..      ADD      sp,sp,#0x6c
        0x00002328:    bdf0        ..      POP      {r4-r7,pc}
        0x0000232a:    2002        .       MOVS     r0,#2
        0x0000232c:    f7fff9ae    ....    BL       __set_errno ; 0x168c
        0x00002330:    f7fff992    ....    BL       __mathlib_dbl_underflow ; 0x1658
        0x00002334:    0049        I.      LSLS     r1,r1,#1
        0x00002336:    0849        I.      LSRS     r1,r1,#1
        0x00002338:    0fe2        ..      LSRS     r2,r4,#31
        0x0000233a:    07d2        ..      LSLS     r2,r2,#31
        0x0000233c:    4311        .C      ORRS     r1,r1,r2
        0x0000233e:    b01b        ..      ADD      sp,sp,#0x6c
        0x00002340:    bdf0        ..      POP      {r4-r7,pc}
        0x00002342:    2200        ."      MOVS     r2,#0
        0x00002344:    4630        0F      MOV      r0,r6
        0x00002346:    4639        9F      MOV      r1,r7
        0x00002348:    f7fdffd0    ....    BL       __aeabi_dsub ; 0x2ec
        0x0000234c:    2201        ."      MOVS     r2,#1
        0x0000234e:    4605        .F      MOV      r5,r0
        0x00002350:    460e        .F      MOV      r6,r1
        0x00002352:    43d2        .C      MVNS     r2,r2
        0x00002354:    f7fef9db    ....    BL       __ARM_scalbn ; 0x70e
        0x00002358:    4a31        1J      LDR      r2,[pc,#196] ; [0x2420] = 0x55555555
        0x0000235a:    4b32        2K      LDR      r3,[pc,#200] ; [0x2424] = 0x3fd55555
        0x0000235c:    f7fdffcc    ....    BL       __aeabi_drsub ; 0x2f8
        0x00002360:    462a        *F      MOV      r2,r5
        0x00002362:    4633        3F      MOV      r3,r6
        0x00002364:    f7fdffd0    ....    BL       __aeabi_dmul ; 0x308
        0x00002368:    2200        ."      MOVS     r2,#0
        0x0000236a:    4b28        (K      LDR      r3,[pc,#160] ; [0x240c] = 0x3fe00000
        0x0000236c:    f7fdffc4    ....    BL       __aeabi_drsub ; 0x2f8
        0x00002370:    4607        .F      MOV      r7,r0
        0x00002372:    462a        *F      MOV      r2,r5
        0x00002374:    4633        3F      MOV      r3,r6
        0x00002376:    e000        ..      B        0x237a ; pow + 950
        0x00002378:    e064        d.      B        0x2444 ; pow + 1152
        0x0000237a:    9103        ..      STR      r1,[sp,#0xc]
        0x0000237c:    4610        .F      MOV      r0,r2
        0x0000237e:    4619        .F      MOV      r1,r3
        0x00002380:    f7fdffc2    ....    BL       __aeabi_dmul ; 0x308
        0x00002384:    463a        :F      MOV      r2,r7
        0x00002386:    9b03        ..      LDR      r3,[sp,#0xc]
        0x00002388:    f7fdffbe    ....    BL       __aeabi_dmul ; 0x308
        0x0000238c:    4607        .F      MOV      r7,r0
        0x0000238e:    2203        ."      MOVS     r2,#3
        0x00002390:    9109        ..      STR      r1,[sp,#0x24]
        0x00002392:    0752        R.      LSLS     r2,r2,#29
        0x00002394:    4b24        $K      LDR      r3,[pc,#144] ; [0x2428] = 0x3ff71547
        0x00002396:    4628        (F      MOV      r0,r5
        0x00002398:    4631        1F      MOV      r1,r6
        0x0000239a:    f7fdffb5    ....    BL       __aeabi_dmul ; 0x308
        0x0000239e:    9107        ..      STR      r1,[sp,#0x1c]
        0x000023a0:    900c        ..      STR      r0,[sp,#0x30]
        0x000023a2:    4a22        "J      LDR      r2,[pc,#136] ; [0x242c] = 0x652b82fe
        0x000023a4:    4b20         K      LDR      r3,[pc,#128] ; [0x2428] = 0x3ff71547
        0x000023a6:    4638        8F      MOV      r0,r7
        0x000023a8:    9909        ..      LDR      r1,[sp,#0x24]
        0x000023aa:    f7fdffad    ....    BL       __aeabi_dmul ; 0x308
        0x000023ae:    4607        .F      MOV      r7,r0
        0x000023b0:    9101        ..      STR      r1,[sp,#4]
        0x000023b2:    4a1f        .J      LDR      r2,[pc,#124] ; [0x2430] = 0xf85ddf44
        0x000023b4:    4b1f        .K      LDR      r3,[pc,#124] ; [0x2434] = 0x3e54ae0b
        0x000023b6:    4628        (F      MOV      r0,r5
        0x000023b8:    4631        1F      MOV      r1,r6
        0x000023ba:    f7fdffa5    ....    BL       __aeabi_dmul ; 0x308
        0x000023be:    463a        :F      MOV      r2,r7
        0x000023c0:    9b01        ..      LDR      r3,[sp,#4]
        0x000023c2:    f7fdff93    ....    BL       __aeabi_dsub ; 0x2ec
        0x000023c6:    4607        .F      MOV      r7,r0
        0x000023c8:    460b        .F      MOV      r3,r1
        0x000023ca:    4602        .F      MOV      r2,r0
        0x000023cc:    9109        ..      STR      r1,[sp,#0x24]
        0x000023ce:    9907        ..      LDR      r1,[sp,#0x1c]
        0x000023d0:    980c        ..      LDR      r0,[sp,#0x30]
        0x000023d2:    f7fdfee7    ....    BL       __aeabi_dadd ; 0x1a4
        0x000023d6:    2500        .%      MOVS     r5,#0
        0x000023d8:    460e        .F      MOV      r6,r1
        0x000023da:    4628        (F      MOV      r0,r5
        0x000023dc:    9b07        ..      LDR      r3,[sp,#0x1c]
        0x000023de:    9a0c        ..      LDR      r2,[sp,#0x30]
        0x000023e0:    f7fdff84    ....    BL       __aeabi_dsub ; 0x2ec
        0x000023e4:    463a        :F      MOV      r2,r7
        0x000023e6:    e027        '.      B        0x2438 ; pow + 1140
    $d
        0x000023e8:    001fffff    ....    DCD    2097151
        0x000023ec:    000fffff    ....    DCD    1048575
        0x000023f0:    3ff00000    ...?    DCD    1072693248
        0x000023f4:    ffe00000    ....    DCD    4292870144
        0x000023f8:    7ff00000    ....    DCD    2146435072
        0x000023fc:    43400000    ..@C    DCD    1128267776
        0x00002400:    fffffc01    ....    DCD    4294966273
        0x00002404:    bff00000    ....    DCD    3220176896
        0x00002408:    00000ace    ....    DCD    2766
        0x0000240c:    3fe00000    ...?    DCD    1071644672
        0x00002410:    fff00000    ....    DCD    4293918720
        0x00002414:    41e00000    ...A    DCD    1105199104
        0x00002418:    43f00000    ...C    DCD    1139802112
        0x0000241c:    3fefffff    ...?    DCD    1072693247
        0x00002420:    55555555    UUUU    DCD    1431655765
        0x00002424:    3fd55555    UU.?    DCD    1070945621
        0x00002428:    3ff71547    G..?    DCD    1073157447
        0x0000242c:    652b82fe    ..+e    DCD    1697350398
        0x00002430:    f85ddf44    D.].    DCD    4166901572
        0x00002434:    3e54ae0b    ..T>    DCD    1045736971
    $t
        0x00002438:    9b09        ..      LDR      r3,[sp,#0x24]
        0x0000243a:    f7fdff5d    ..].    BL       __aeabi_drsub ; 0x2f8
        0x0000243e:    4602        .F      MOV      r2,r0
        0x00002440:    460b        .F      MOV      r3,r1
        0x00002442:    e152        R.      B        0x26ea ; pow + 1830
        0x00002444:    2501        .%      MOVS     r5,#1
        0x00002446:    2000        .       MOVS     r0,#0
        0x00002448:    052d        -.      LSLS     r5,r5,#20
        0x0000244a:    42a9        .B      CMP      r1,r5
        0x0000244c:    da07        ..      BGE      0x245e ; pow + 1178
        0x0000244e:    2235        5"      MOVS     r2,#0x35
        0x00002450:    4630        0F      MOV      r0,r6
        0x00002452:    4639        9F      MOV      r1,r7
        0x00002454:    f7fef95b    ..[.    BL       __ARM_scalbn ; 0x70e
        0x00002458:    4606        .F      MOV      r6,r0
        0x0000245a:    2034        4       MOVS     r0,#0x34
        0x0000245c:    43c0        .C      MVNS     r0,r0
        0x0000245e:    150a        ..      ASRS     r2,r1,#20
        0x00002460:    1812        ..      ADDS     r2,r2,r0
        0x00002462:    48fe        .H      LDR      r0,[pc,#1016] ; [0x285c] = 0xfffffc01
        0x00002464:    1810        ..      ADDS     r0,r2,r0
        0x00002466:    9003        ..      STR      r0,[sp,#0xc]
        0x00002468:    0308        ..      LSLS     r0,r1,#12
        0x0000246a:    49fd        .I      LDR      r1,[pc,#1012] ; [0x2860] = 0x3ff00000
        0x0000246c:    0b00        ..      LSRS     r0,r0,#12
        0x0000246e:    4301        .C      ORRS     r1,r1,r0
        0x00002470:    460f        .F      MOV      r7,r1
        0x00002472:    49fc        .I      LDR      r1,[pc,#1008] ; [0x2864] = 0x3988e
        0x00002474:    4288        .B      CMP      r0,r1
        0x00002476:    dc01        ..      BGT      0x247c ; pow + 1208
        0x00002478:    2000        .       MOVS     r0,#0
        0x0000247a:    e003        ..      B        0x2484 ; pow + 1216
        0x0000247c:    49fa        .I      LDR      r1,[pc,#1000] ; [0x2868] = 0xbb67a
        0x0000247e:    4288        .B      CMP      r0,r1
        0x00002480:    da02        ..      BGE      0x2488 ; pow + 1220
        0x00002482:    2001        .       MOVS     r0,#1
        0x00002484:    9011        ..      STR      r0,[sp,#0x44]
        0x00002486:    e005        ..      B        0x2494 ; pow + 1232
        0x00002488:    2000        .       MOVS     r0,#0
        0x0000248a:    9011        ..      STR      r0,[sp,#0x44]
        0x0000248c:    9803        ..      LDR      r0,[sp,#0xc]
        0x0000248e:    1c40        @.      ADDS     r0,r0,#1
        0x00002490:    1b7f        ..      SUBS     r7,r7,r5
        0x00002492:    9003        ..      STR      r0,[sp,#0xc]
        0x00002494:    9811        ..      LDR      r0,[sp,#0x44]
        0x00002496:    9705        ..      STR      r7,[sp,#0x14]
        0x00002498:    00c2        ..      LSLS     r2,r0,#3
        0x0000249a:    48f4        .H      LDR      r0,[pc,#976] ; [0x286c] = 0x6de
        0x0000249c:    920f        ..      STR      r2,[sp,#0x3c]
        0x0000249e:    4478        xD      ADD      r0,r0,pc
        0x000024a0:    1880        ..      ADDS     r0,r0,r2
        0x000024a2:    6843        Ch      LDR      r3,[r0,#4]
        0x000024a4:    6802        .h      LDR      r2,[r0,#0]
        0x000024a6:    4639        9F      MOV      r1,r7
        0x000024a8:    4630        0F      MOV      r0,r6
        0x000024aa:    930d        ..      STR      r3,[sp,#0x34]
        0x000024ac:    9202        ..      STR      r2,[sp,#8]
        0x000024ae:    f7fdff1d    ....    BL       __aeabi_dsub ; 0x2ec
        0x000024b2:    9107        ..      STR      r1,[sp,#0x1c]
        0x000024b4:    900c        ..      STR      r0,[sp,#0x30]
        0x000024b6:    4630        0F      MOV      r0,r6
        0x000024b8:    9b0d        ..      LDR      r3,[sp,#0x34]
        0x000024ba:    9a02        ..      LDR      r2,[sp,#8]
        0x000024bc:    9905        ..      LDR      r1,[sp,#0x14]
        0x000024be:    f7fdfe71    ..q.    BL       __aeabi_dadd ; 0x1a4
        0x000024c2:    4602        .F      MOV      r2,r0
        0x000024c4:    460b        .F      MOV      r3,r1
        0x000024c6:    2000        .       MOVS     r0,#0
        0x000024c8:    49e5        .I      LDR      r1,[pc,#916] ; [0x2860] = 0x3ff00000
        0x000024ca:    f7fdff85    ....    BL       __aeabi_ddiv ; 0x3d8
        0x000024ce:    9109        ..      STR      r1,[sp,#0x24]
        0x000024d0:    9004        ..      STR      r0,[sp,#0x10]
        0x000024d2:    9b07        ..      LDR      r3,[sp,#0x1c]
        0x000024d4:    9a0c        ..      LDR      r2,[sp,#0x30]
        0x000024d6:    f7fdff17    ....    BL       __aeabi_dmul ; 0x308
        0x000024da:    9012        ..      STR      r0,[sp,#0x48]
        0x000024dc:    2000        .       MOVS     r0,#0
        0x000024de:    9010        ..      STR      r0,[sp,#0x40]
        0x000024e0:    48e3        .H      LDR      r0,[pc,#908] ; [0x2870] = 0x720
        0x000024e2:    460d        .F      MOV      r5,r1
        0x000024e4:    4478        xD      ADD      r0,r0,pc
        0x000024e6:    6800        .h      LDR      r0,[r0,#0]
        0x000024e8:    900e        ..      STR      r0,[sp,#0x38]
        0x000024ea:    2101        .!      MOVS     r1,#1
        0x000024ec:    1078        x.      ASRS     r0,r7,#1
        0x000024ee:    0749        I.      LSLS     r1,r1,#29
        0x000024f0:    4308        .C      ORRS     r0,r0,r1
        0x000024f2:    9911        ..      LDR      r1,[sp,#0x44]
        0x000024f4:    9b0d        ..      LDR      r3,[sp,#0x34]
        0x000024f6:    0489        ..      LSLS     r1,r1,#18
        0x000024f8:    1840        @.      ADDS     r0,r0,r1
        0x000024fa:    2101        .!      MOVS     r1,#1
        0x000024fc:    04c9        ..      LSLS     r1,r1,#19
        0x000024fe:    1847        G.      ADDS     r7,r0,r1
        0x00002500:    4639        9F      MOV      r1,r7
        0x00002502:    9a02        ..      LDR      r2,[sp,#8]
        0x00002504:    980e        ..      LDR      r0,[sp,#0x38]
        0x00002506:    f7fdfef1    ....    BL       __aeabi_dsub ; 0x2ec
        0x0000250a:    4632        2F      MOV      r2,r6
        0x0000250c:    9b05        ..      LDR      r3,[sp,#0x14]
        0x0000250e:    f7fdfef3    ....    BL       __aeabi_drsub ; 0x2f8
        0x00002512:    4602        .F      MOV      r2,r0
        0x00002514:    460b        .F      MOV      r3,r1
        0x00002516:    4629        )F      MOV      r1,r5
        0x00002518:    9810        ..      LDR      r0,[sp,#0x40]
        0x0000251a:    f7fdfef5    ....    BL       __aeabi_dmul ; 0x308
        0x0000251e:    4606        .F      MOV      r6,r0
        0x00002520:    9102        ..      STR      r1,[sp,#8]
        0x00002522:    463b        ;F      MOV      r3,r7
        0x00002524:    4629        )F      MOV      r1,r5
        0x00002526:    9a0e        ..      LDR      r2,[sp,#0x38]
        0x00002528:    9810        ..      LDR      r0,[sp,#0x40]
        0x0000252a:    f7fdfeed    ....    BL       __aeabi_dmul ; 0x308
        0x0000252e:    9b07        ..      LDR      r3,[sp,#0x1c]
        0x00002530:    9a0c        ..      LDR      r2,[sp,#0x30]
        0x00002532:    f7fdfee1    ....    BL       __aeabi_drsub ; 0x2f8
        0x00002536:    4632        2F      MOV      r2,r6
        0x00002538:    9b02        ..      LDR      r3,[sp,#8]
        0x0000253a:    f7fdfed7    ....    BL       __aeabi_dsub ; 0x2ec
        0x0000253e:    9b09        ..      LDR      r3,[sp,#0x24]
        0x00002540:    9a04        ..      LDR      r2,[sp,#0x10]
        0x00002542:    f7fdfee1    ....    BL       __aeabi_dmul ; 0x308
        0x00002546:    9105        ..      STR      r1,[sp,#0x14]
        0x00002548:    9a12        ..      LDR      r2,[sp,#0x48]
        0x0000254a:    900a        ..      STR      r0,[sp,#0x28]
        0x0000254c:    462b        +F      MOV      r3,r5
        0x0000254e:    4610        .F      MOV      r0,r2
        0x00002550:    4619        .F      MOV      r1,r3
        0x00002552:    f7fdfed9    ....    BL       __aeabi_dmul ; 0x308
        0x00002556:    4606        .F      MOV      r6,r0
        0x00002558:    4602        .F      MOV      r2,r0
        0x0000255a:    48c6        .H      LDR      r0,[pc,#792] ; [0x2874] = 0x64a
        0x0000255c:    460f        .F      MOV      r7,r1
        0x0000255e:    460b        .F      MOV      r3,r1
        0x00002560:    2106        .!      MOVS     r1,#6
        0x00002562:    4478        xD      ADD      r0,r0,pc
        0x00002564:    f7fefffc    ....    BL       __kernel_poly ; 0x1560
        0x00002568:    4632        2F      MOV      r2,r6
        0x0000256a:    463b        ;F      MOV      r3,r7
        0x0000256c:    9100        ..      STR      r1,[sp,#0]
        0x0000256e:    9004        ..      STR      r0,[sp,#0x10]
        0x00002570:    4610        .F      MOV      r0,r2
        0x00002572:    4619        .F      MOV      r1,r3
        0x00002574:    f7fdfec8    ....    BL       __aeabi_dmul ; 0x308
        0x00002578:    9b00        ..      LDR      r3,[sp,#0]
        0x0000257a:    9a04        ..      LDR      r2,[sp,#0x10]
        0x0000257c:    f7fdfec4    ....    BL       __aeabi_dmul ; 0x308
        0x00002580:    4606        .F      MOV      r6,r0
        0x00002582:    460f        .F      MOV      r7,r1
        0x00002584:    462b        +F      MOV      r3,r5
        0x00002586:    4619        .F      MOV      r1,r3
        0x00002588:    9a12        ..      LDR      r2,[sp,#0x48]
        0x0000258a:    9810        ..      LDR      r0,[sp,#0x40]
        0x0000258c:    f7fdfe0a    ....    BL       __aeabi_dadd ; 0x1a4
        0x00002590:    9b05        ..      LDR      r3,[sp,#0x14]
        0x00002592:    9a0a        ..      LDR      r2,[sp,#0x28]
        0x00002594:    f7fdfeb8    ....    BL       __aeabi_dmul ; 0x308
        0x00002598:    4632        2F      MOV      r2,r6
        0x0000259a:    463b        ;F      MOV      r3,r7
        0x0000259c:    f7fdfe02    ....    BL       __aeabi_dadd ; 0x1a4
        0x000025a0:    9a10        ..      LDR      r2,[sp,#0x40]
        0x000025a2:    9107        ..      STR      r1,[sp,#0x1c]
        0x000025a4:    9004        ..      STR      r0,[sp,#0x10]
        0x000025a6:    462b        +F      MOV      r3,r5
        0x000025a8:    4610        .F      MOV      r0,r2
        0x000025aa:    4619        .F      MOV      r1,r3
        0x000025ac:    f7fdfeac    ....    BL       __aeabi_dmul ; 0x308
        0x000025b0:    4eb1        .N      LDR      r6,[pc,#708] ; [0x2878] = 0x40080000
        0x000025b2:    2200        ."      MOVS     r2,#0
        0x000025b4:    4633        3F      MOV      r3,r6
        0x000025b6:    9109        ..      STR      r1,[sp,#0x24]
        0x000025b8:    9002        ..      STR      r0,[sp,#8]
        0x000025ba:    f7fdfdf3    ....    BL       __aeabi_dadd ; 0x1a4
        0x000025be:    9b07        ..      LDR      r3,[sp,#0x1c]
        0x000025c0:    9a04        ..      LDR      r2,[sp,#0x10]
        0x000025c2:    f7fdfdef    ....    BL       __aeabi_dadd ; 0x1a4
        0x000025c6:    2000        .       MOVS     r0,#0
        0x000025c8:    4607        .F      MOV      r7,r0
        0x000025ca:    4602        .F      MOV      r2,r0
        0x000025cc:    4633        3F      MOV      r3,r6
        0x000025ce:    9100        ..      STR      r1,[sp,#0]
        0x000025d0:    f7fdfe8c    ....    BL       __aeabi_dsub ; 0x2ec
        0x000025d4:    9b09        ..      LDR      r3,[sp,#0x24]
        0x000025d6:    9a02        ..      LDR      r2,[sp,#8]
        0x000025d8:    f7fdfe88    ....    BL       __aeabi_dsub ; 0x2ec
        0x000025dc:    9b07        ..      LDR      r3,[sp,#0x1c]
        0x000025de:    9a04        ..      LDR      r2,[sp,#0x10]
        0x000025e0:    f7fdfe8a    ....    BL       __aeabi_drsub ; 0x2f8
        0x000025e4:    4606        .F      MOV      r6,r0
        0x000025e6:    910d        ..      STR      r1,[sp,#0x34]
        0x000025e8:    463a        :F      MOV      r2,r7
        0x000025ea:    4629        )F      MOV      r1,r5
        0x000025ec:    9b00        ..      LDR      r3,[sp,#0]
        0x000025ee:    9810        ..      LDR      r0,[sp,#0x40]
        0x000025f0:    f7fdfe8a    ....    BL       __aeabi_dmul ; 0x308
        0x000025f4:    9107        ..      STR      r1,[sp,#0x1c]
        0x000025f6:    900c        ..      STR      r0,[sp,#0x30]
        0x000025f8:    462b        +F      MOV      r3,r5
        0x000025fa:    4630        0F      MOV      r0,r6
        0x000025fc:    9a12        ..      LDR      r2,[sp,#0x48]
        0x000025fe:    990d        ..      LDR      r1,[sp,#0x34]
        0x00002600:    f7fdfe82    ....    BL       __aeabi_dmul ; 0x308
        0x00002604:    4605        .F      MOV      r5,r0
        0x00002606:    460e        .F      MOV      r6,r1
        0x00002608:    463a        :F      MOV      r2,r7
        0x0000260a:    9b00        ..      LDR      r3,[sp,#0]
        0x0000260c:    9905        ..      LDR      r1,[sp,#0x14]
        0x0000260e:    980a        ..      LDR      r0,[sp,#0x28]
        0x00002610:    f7fdfe7a    ..z.    BL       __aeabi_dmul ; 0x308
        0x00002614:    4633        3F      MOV      r3,r6
        0x00002616:    462a        *F      MOV      r2,r5
        0x00002618:    f7fdfdc4    ....    BL       __aeabi_dadd ; 0x1a4
        0x0000261c:    4602        .F      MOV      r2,r0
        0x0000261e:    460b        .F      MOV      r3,r1
        0x00002620:    4607        .F      MOV      r7,r0
        0x00002622:    9109        ..      STR      r1,[sp,#0x24]
        0x00002624:    9907        ..      LDR      r1,[sp,#0x1c]
        0x00002626:    980c        ..      LDR      r0,[sp,#0x30]
        0x00002628:    f7fdfdbc    ....    BL       __aeabi_dadd ; 0x1a4
        0x0000262c:    2500        .%      MOVS     r5,#0
        0x0000262e:    460e        .F      MOV      r6,r1
        0x00002630:    4628        (F      MOV      r0,r5
        0x00002632:    9b07        ..      LDR      r3,[sp,#0x1c]
        0x00002634:    9a0c        ..      LDR      r2,[sp,#0x30]
        0x00002636:    f7fdfe59    ..Y.    BL       __aeabi_dsub ; 0x2ec
        0x0000263a:    463a        :F      MOV      r2,r7
        0x0000263c:    9b09        ..      LDR      r3,[sp,#0x24]
        0x0000263e:    f7fdfe5b    ..[.    BL       __aeabi_drsub ; 0x2f8
        0x00002642:    4607        .F      MOV      r7,r0
        0x00002644:    2207        ."      MOVS     r2,#7
        0x00002646:    9109        ..      STR      r1,[sp,#0x24]
        0x00002648:    0752        R.      LSLS     r2,r2,#29
        0x0000264a:    4b8c        .K      LDR      r3,[pc,#560] ; [0x287c] = 0x3feec709
        0x0000264c:    4631        1F      MOV      r1,r6
        0x0000264e:    4628        (F      MOV      r0,r5
        0x00002650:    f7fdfe5a    ..Z.    BL       __aeabi_dmul ; 0x308
        0x00002654:    9107        ..      STR      r1,[sp,#0x1c]
        0x00002656:    9000        ..      STR      r0,[sp,#0]
        0x00002658:    4a89        .J      LDR      r2,[pc,#548] ; [0x2880] = 0xdc3a03fd
        0x0000265a:    4b88        .K      LDR      r3,[pc,#544] ; [0x287c] = 0x3feec709
        0x0000265c:    4638        8F      MOV      r0,r7
        0x0000265e:    9909        ..      LDR      r1,[sp,#0x24]
        0x00002660:    f7fdfe52    ..R.    BL       __aeabi_dmul ; 0x308
        0x00002664:    4607        .F      MOV      r7,r0
        0x00002666:    9101        ..      STR      r1,[sp,#4]
        0x00002668:    4a86        .J      LDR      r2,[pc,#536] ; [0x2884] = 0x145b01f5
        0x0000266a:    4b87        .K      LDR      r3,[pc,#540] ; [0x2888] = 0xbe3e2fe0
        0x0000266c:    4631        1F      MOV      r1,r6
        0x0000266e:    4628        (F      MOV      r0,r5
        0x00002670:    f7fdfe4a    ..J.    BL       __aeabi_dmul ; 0x308
        0x00002674:    463a        :F      MOV      r2,r7
        0x00002676:    9b01        ..      LDR      r3,[sp,#4]
        0x00002678:    f7fdfd94    ....    BL       __aeabi_dadd ; 0x1a4
        0x0000267c:    4b83        .K      LDR      r3,[pc,#524] ; [0x288c] = 0x51e
        0x0000267e:    447b        {D      ADD      r3,r3,pc
        0x00002680:    9a0f        ..      LDR      r2,[sp,#0x3c]
        0x00002682:    189b        ..      ADDS     r3,r3,r2
        0x00002684:    681a        .h      LDR      r2,[r3,#0]
        0x00002686:    685b        [h      LDR      r3,[r3,#4]
        0x00002688:    f7fdfd8c    ....    BL       __aeabi_dadd ; 0x1a4
        0x0000268c:    9002        ..      STR      r0,[sp,#8]
        0x0000268e:    9109        ..      STR      r1,[sp,#0x24]
        0x00002690:    9803        ..      LDR      r0,[sp,#0xc]
        0x00002692:    f7fdff19    ....    BL       __aeabi_i2d ; 0x4c8
        0x00002696:    9105        ..      STR      r1,[sp,#0x14]
        0x00002698:    9004        ..      STR      r0,[sp,#0x10]
        0x0000269a:    9b09        ..      LDR      r3,[sp,#0x24]
        0x0000269c:    9a02        ..      LDR      r2,[sp,#8]
        0x0000269e:    9907        ..      LDR      r1,[sp,#0x1c]
        0x000026a0:    9800        ..      LDR      r0,[sp,#0]
        0x000026a2:    f7fdfd7f    ....    BL       __aeabi_dadd ; 0x1a4
        0x000026a6:    4b7a        zK      LDR      r3,[pc,#488] ; [0x2890] = 0x4e4
        0x000026a8:    447b        {D      ADD      r3,r3,pc
        0x000026aa:    9a0f        ..      LDR      r2,[sp,#0x3c]
        0x000026ac:    189b        ..      ADDS     r3,r3,r2
        0x000026ae:    681a        .h      LDR      r2,[r3,#0]
        0x000026b0:    685b        [h      LDR      r3,[r3,#4]
        0x000026b2:    4617        .F      MOV      r7,r2
        0x000026b4:    9303        ..      STR      r3,[sp,#0xc]
        0x000026b6:    f7fdfd75    ..u.    BL       __aeabi_dadd ; 0x1a4
        0x000026ba:    9b05        ..      LDR      r3,[sp,#0x14]
        0x000026bc:    9a04        ..      LDR      r2,[sp,#0x10]
        0x000026be:    f7fdfd71    ..q.    BL       __aeabi_dadd ; 0x1a4
        0x000026c2:    460e        .F      MOV      r6,r1
        0x000026c4:    4628        (F      MOV      r0,r5
        0x000026c6:    9b05        ..      LDR      r3,[sp,#0x14]
        0x000026c8:    9a04        ..      LDR      r2,[sp,#0x10]
        0x000026ca:    f7fdfe0f    ....    BL       __aeabi_dsub ; 0x2ec
        0x000026ce:    463a        :F      MOV      r2,r7
        0x000026d0:    9b03        ..      LDR      r3,[sp,#0xc]
        0x000026d2:    f7fdfe0b    ....    BL       __aeabi_dsub ; 0x2ec
        0x000026d6:    9b07        ..      LDR      r3,[sp,#0x1c]
        0x000026d8:    9a00        ..      LDR      r2,[sp,#0]
        0x000026da:    f7fdfe07    ....    BL       __aeabi_dsub ; 0x2ec
        0x000026de:    9b09        ..      LDR      r3,[sp,#0x24]
        0x000026e0:    9a02        ..      LDR      r2,[sp,#8]
        0x000026e2:    f7fdfe09    ....    BL       __aeabi_drsub ; 0x2f8
        0x000026e6:    4602        .F      MOV      r2,r0
        0x000026e8:    460b        .F      MOV      r3,r1
        0x000026ea:    9919        ..      LDR      r1,[sp,#0x64]
        0x000026ec:    2000        .       MOVS     r0,#0
        0x000026ee:    900c        ..      STR      r0,[sp,#0x30]
        0x000026f0:    460f        .F      MOV      r7,r1
        0x000026f2:    9818        ..      LDR      r0,[sp,#0x60]
        0x000026f4:    f7fdfe08    ....    BL       __aeabi_dmul ; 0x308
        0x000026f8:    9102        ..      STR      r1,[sp,#8]
        0x000026fa:    9004        ..      STR      r0,[sp,#0x10]
        0x000026fc:    463b        ;F      MOV      r3,r7
        0x000026fe:    9a0c        ..      LDR      r2,[sp,#0x30]
        0x00002700:    9919        ..      LDR      r1,[sp,#0x64]
        0x00002702:    9818        ..      LDR      r0,[sp,#0x60]
        0x00002704:    f7fdfdf2    ....    BL       __aeabi_dsub ; 0x2ec
        0x00002708:    462a        *F      MOV      r2,r5
        0x0000270a:    4633        3F      MOV      r3,r6
        0x0000270c:    f7fdfdfc    ....    BL       __aeabi_dmul ; 0x308
        0x00002710:    9b02        ..      LDR      r3,[sp,#8]
        0x00002712:    9a04        ..      LDR      r2,[sp,#0x10]
        0x00002714:    f7fdfd46    ..F.    BL       __aeabi_dadd ; 0x1a4
        0x00002718:    9109        ..      STR      r1,[sp,#0x24]
        0x0000271a:    900e        ..      STR      r0,[sp,#0x38]
        0x0000271c:    462a        *F      MOV      r2,r5
        0x0000271e:    4633        3F      MOV      r3,r6
        0x00002720:    4639        9F      MOV      r1,r7
        0x00002722:    980c        ..      LDR      r0,[sp,#0x30]
        0x00002724:    f7fdfdf0    ....    BL       __aeabi_dmul ; 0x308
        0x00002728:    4606        .F      MOV      r6,r0
        0x0000272a:    460f        .F      MOV      r7,r1
        0x0000272c:    9b09        ..      LDR      r3,[sp,#0x24]
        0x0000272e:    9a0e        ..      LDR      r2,[sp,#0x38]
        0x00002730:    f7fdfd38    ..8.    BL       __aeabi_dadd ; 0x1a4
        0x00002734:    4a57        WJ      LDR      r2,[pc,#348] ; [0x2894] = 0x40900000
        0x00002736:    460d        .F      MOV      r5,r1
        0x00002738:    4291        .B      CMP      r1,r2
        0x0000273a:    db20         .      BLT      0x277e ; pow + 1978
        0x0000273c:    4252        RB      RSBS     r2,r2,#0
        0x0000273e:    18aa        ..      ADDS     r2,r5,r2
        0x00002740:    4302        .C      ORRS     r2,r2,r0
        0x00002742:    d110        ..      BNE      0x2766 ; pow + 1954
        0x00002744:    4632        2F      MOV      r2,r6
        0x00002746:    463b        ;F      MOV      r3,r7
        0x00002748:    f7fdfdd0    ....    BL       __aeabi_dsub ; 0x2ec
        0x0000274c:    9004        ..      STR      r0,[sp,#0x10]
        0x0000274e:    9103        ..      STR      r1,[sp,#0xc]
        0x00002750:    4a51        QJ      LDR      r2,[pc,#324] ; [0x2898] = 0x652b82fe
        0x00002752:    4b52        RK      LDR      r3,[pc,#328] ; [0x289c] = 0x3c971547
        0x00002754:    9909        ..      LDR      r1,[sp,#0x24]
        0x00002756:    980e        ..      LDR      r0,[sp,#0x38]
        0x00002758:    f7fdfd24    ..$.    BL       __aeabi_dadd ; 0x1a4
        0x0000275c:    9b03        ..      LDR      r3,[sp,#0xc]
        0x0000275e:    9a04        ..      LDR      r2,[sp,#0x10]
        0x00002760:    f7fef83c    ..<.    BL       __aeabi_cdrcmple ; 0x7dc
        0x00002764:    d21e        ..      BCS      0x27a4 ; pow + 2016
        0x00002766:    2002        .       MOVS     r0,#2
        0x00002768:    f7feff90    ....    BL       __set_errno ; 0x168c
        0x0000276c:    f7feff6a    ..j.    BL       __mathlib_dbl_overflow ; 0x1644
        0x00002770:    0049        I.      LSLS     r1,r1,#1
        0x00002772:    0849        I.      LSRS     r1,r1,#1
        0x00002774:    0fe2        ..      LSRS     r2,r4,#31
        0x00002776:    07d2        ..      LSLS     r2,r2,#31
        0x00002778:    4311        .C      ORRS     r1,r1,r2
        0x0000277a:    b01b        ..      ADD      sp,sp,#0x6c
        0x0000277c:    bdf0        ..      POP      {r4-r7,pc}
        0x0000277e:    006a        j.      LSLS     r2,r5,#1
        0x00002780:    4b47        GK      LDR      r3,[pc,#284] ; [0x28a0] = 0x4090cc00
        0x00002782:    0852        R.      LSRS     r2,r2,#1
        0x00002784:    429a        .B      CMP      r2,r3
        0x00002786:    d30d        ..      BCC      0x27a4 ; pow + 2016
        0x00002788:    4a46        FJ      LDR      r2,[pc,#280] ; [0x28a4] = 0x3f6f3400
        0x0000278a:    18aa        ..      ADDS     r2,r5,r2
        0x0000278c:    4302        .C      ORRS     r2,r2,r0
        0x0000278e:    d000        ..      BEQ      0x2792 ; pow + 1998
        0x00002790:    e5cb        ..      B        0x232a ; pow + 870
        0x00002792:    4632        2F      MOV      r2,r6
        0x00002794:    463b        ;F      MOV      r3,r7
        0x00002796:    f7fdfda9    ....    BL       __aeabi_dsub ; 0x2ec
        0x0000279a:    9b09        ..      LDR      r3,[sp,#0x24]
        0x0000279c:    9a0e        ..      LDR      r2,[sp,#0x38]
        0x0000279e:    f7fef81d    ....    BL       __aeabi_cdrcmple ; 0x7dc
        0x000027a2:    d9f5        ..      BLS      0x2790 ; pow + 1996
        0x000027a4:    0068        h.      LSLS     r0,r5,#1
        0x000027a6:    2300        .#      MOVS     r3,#0
        0x000027a8:    0840        @.      LSRS     r0,r0,#1
        0x000027aa:    492c        ,I      LDR      r1,[pc,#176] ; [0x285c] = 0xfffffc01
        0x000027ac:    9303        ..      STR      r3,[sp,#0xc]
        0x000027ae:    0d02        ..      LSRS     r2,r0,#20
        0x000027b0:    4b3d        =K      LDR      r3,[pc,#244] ; [0x28a8] = 0x3fe00000
        0x000027b2:    1852        R.      ADDS     r2,r2,r1
        0x000027b4:    4298        .B      CMP      r0,r3
        0x000027b6:    dd23        #.      BLE      0x2800 ; pow + 2108
        0x000027b8:    2001        .       MOVS     r0,#1
        0x000027ba:    0500        ..      LSLS     r0,r0,#20
        0x000027bc:    1c52        R.      ADDS     r2,r2,#1
        0x000027be:    40d0        .@      LSRS     r0,r0,r2
        0x000027c0:    1942        B.      ADDS     r2,r0,r5
        0x000027c2:    0050        P.      LSLS     r0,r2,#1
        0x000027c4:    0d40        @.      LSRS     r0,r0,#21
        0x000027c6:    1840        @.      ADDS     r0,r0,r1
        0x000027c8:    4938        8I      LDR      r1,[pc,#224] ; [0x28ac] = 0x43a
        0x000027ca:    4479        yD      ADD      r1,r1,pc
        0x000027cc:    6809        .h      LDR      r1,[r1,#0]
        0x000027ce:    4613        .F      MOV      r3,r2
        0x000027d0:    468c        .F      MOV      r12,r1
        0x000027d2:    4937        7I      LDR      r1,[pc,#220] ; [0x28b0] = 0xfffff
        0x000027d4:    40c1        .@      LSRS     r1,r1,r0
        0x000027d6:    438b        .C      BICS     r3,r3,r1
        0x000027d8:    0312        ..      LSLS     r2,r2,#12
        0x000027da:    2101        .!      MOVS     r1,#1
        0x000027dc:    0b12        ..      LSRS     r2,r2,#12
        0x000027de:    0509        ..      LSLS     r1,r1,#20
        0x000027e0:    1851        Q.      ADDS     r1,r2,r1
        0x000027e2:    2214        ."      MOVS     r2,#0x14
        0x000027e4:    1a10        ..      SUBS     r0,r2,r0
        0x000027e6:    40c1        .@      LSRS     r1,r1,r0
        0x000027e8:    9103        ..      STR      r1,[sp,#0xc]
        0x000027ea:    2d00        .-      CMP      r5,#0
        0x000027ec:    da01        ..      BGE      0x27f2 ; pow + 2094
        0x000027ee:    4248        HB      RSBS     r0,r1,#0
        0x000027f0:    9003        ..      STR      r0,[sp,#0xc]
        0x000027f2:    4662        bF      MOV      r2,r12
        0x000027f4:    4630        0F      MOV      r0,r6
        0x000027f6:    4639        9F      MOV      r1,r7
        0x000027f8:    f7fdfd78    ..x.    BL       __aeabi_dsub ; 0x2ec
        0x000027fc:    4606        .F      MOV      r6,r0
        0x000027fe:    460f        .F      MOV      r7,r1
        0x00002800:    4632        2F      MOV      r2,r6
        0x00002802:    463b        ;F      MOV      r3,r7
        0x00002804:    9909        ..      LDR      r1,[sp,#0x24]
        0x00002806:    980e        ..      LDR      r0,[sp,#0x38]
        0x00002808:    f7fdfccc    ....    BL       __aeabi_dadd ; 0x1a4
        0x0000280c:    2500        .%      MOVS     r5,#0
        0x0000280e:    462a        *F      MOV      r2,r5
        0x00002810:    4b28        (K      LDR      r3,[pc,#160] ; [0x28b4] = 0x3fe62e43
        0x00002812:    4628        (F      MOV      r0,r5
        0x00002814:    9105        ..      STR      r1,[sp,#0x14]
        0x00002816:    f7fdfd77    ..w.    BL       __aeabi_dmul ; 0x308
        0x0000281a:    9107        ..      STR      r1,[sp,#0x1c]
        0x0000281c:    900c        ..      STR      r0,[sp,#0x30]
        0x0000281e:    4a26        &J      LDR      r2,[pc,#152] ; [0x28b8] = 0xca86c39
        0x00002820:    4b26        &K      LDR      r3,[pc,#152] ; [0x28bc] = 0xbe205c61
        0x00002822:    4628        (F      MOV      r0,r5
        0x00002824:    9905        ..      LDR      r1,[sp,#0x14]
        0x00002826:    f7fdfd6f    ..o.    BL       __aeabi_dmul ; 0x308
        0x0000282a:    9100        ..      STR      r1,[sp,#0]
        0x0000282c:    9002        ..      STR      r0,[sp,#8]
        0x0000282e:    4632        2F      MOV      r2,r6
        0x00002830:    463b        ;F      MOV      r3,r7
        0x00002832:    4628        (F      MOV      r0,r5
        0x00002834:    9905        ..      LDR      r1,[sp,#0x14]
        0x00002836:    f7fdfd59    ..Y.    BL       __aeabi_dsub ; 0x2ec
        0x0000283a:    9b09        ..      LDR      r3,[sp,#0x24]
        0x0000283c:    9a0e        ..      LDR      r2,[sp,#0x38]
        0x0000283e:    f7fdfd5b    ..[.    BL       __aeabi_drsub ; 0x2f8
        0x00002842:    4a1f        .J      LDR      r2,[pc,#124] ; [0x28c0] = 0xfefa39ef
        0x00002844:    4b1f        .K      LDR      r3,[pc,#124] ; [0x28c4] = 0x3fe62e42
        0x00002846:    f7fdfd5f    .._.    BL       __aeabi_dmul ; 0x308
        0x0000284a:    9b00        ..      LDR      r3,[sp,#0]
        0x0000284c:    9a02        ..      LDR      r2,[sp,#8]
        0x0000284e:    f7fdfca9    ....    BL       __aeabi_dadd ; 0x1a4
        0x00002852:    4607        .F      MOV      r7,r0
        0x00002854:    460b        .F      MOV      r3,r1
        0x00002856:    4602        .F      MOV      r2,r0
        0x00002858:    9109        ..      STR      r1,[sp,#0x24]
        0x0000285a:    e035        5.      B        0x28c8 ; pow + 2308
    $d
        0x0000285c:    fffffc01    ....    DCD    4294966273
        0x00002860:    3ff00000    ...?    DCD    1072693248
        0x00002864:    0003988e    ....    DCD    235662
        0x00002868:    000bb67a    z...    DCD    767610
        0x0000286c:    000006de    ....    DCD    1758
        0x00002870:    00000720     ...    DCD    1824
        0x00002874:    0000064a    J...    DCD    1610
        0x00002878:    40080000    ...@    DCD    1074266112
        0x0000287c:    3feec709    ...?    DCD    1072613129
        0x00002880:    dc3a03fd    ..:.    DCD    3694789629
        0x00002884:    145b01f5    ..[.    DCD    341508597
        0x00002888:    be3e2fe0    ./>.    DCD    3191746528
        0x0000288c:    0000051e    ....    DCD    1310
        0x00002890:    000004e4    ....    DCD    1252
        0x00002894:    40900000    ...@    DCD    1083179008
        0x00002898:    652b82fe    ..+e    DCD    1697350398
        0x0000289c:    3c971547    G..<    DCD    1016534343
        0x000028a0:    4090cc00    ...@    DCD    1083231232
        0x000028a4:    3f6f3400    .4o?    DCD    1064252416
        0x000028a8:    3fe00000    ...?    DCD    1071644672
        0x000028ac:    0000043a    :...    DCD    1082
        0x000028b0:    000fffff    ....    DCD    1048575
        0x000028b4:    3fe62e43    C..?    DCD    1072049731
        0x000028b8:    0ca86c39    9l..    DCD    212364345
        0x000028bc:    be205c61    a\ .    DCD    3189791841
        0x000028c0:    fefa39ef    .9..    DCD    4277811695
        0x000028c4:    3fe62e42    B..?    DCD    1072049730
    $t
        0x000028c8:    9907        ..      LDR      r1,[sp,#0x1c]
        0x000028ca:    980c        ..      LDR      r0,[sp,#0x30]
        0x000028cc:    f7fdfc6a    ..j.    BL       __aeabi_dadd ; 0x1a4
        0x000028d0:    4605        .F      MOV      r5,r0
        0x000028d2:    460e        .F      MOV      r6,r1
        0x000028d4:    9b07        ..      LDR      r3,[sp,#0x1c]
        0x000028d6:    9a0c        ..      LDR      r2,[sp,#0x30]
        0x000028d8:    f7fdfd08    ....    BL       __aeabi_dsub ; 0x2ec
        0x000028dc:    463a        :F      MOV      r2,r7
        0x000028de:    9b09        ..      LDR      r3,[sp,#0x24]
        0x000028e0:    f7fdfd0a    ....    BL       __aeabi_drsub ; 0x2f8
        0x000028e4:    9109        ..      STR      r1,[sp,#0x24]
        0x000028e6:    462a        *F      MOV      r2,r5
        0x000028e8:    4633        3F      MOV      r3,r6
        0x000028ea:    900e        ..      STR      r0,[sp,#0x38]
        0x000028ec:    4610        .F      MOV      r0,r2
        0x000028ee:    4619        .F      MOV      r1,r3
        0x000028f0:    f7fdfd0a    ....    BL       __aeabi_dmul ; 0x308
        0x000028f4:    4607        .F      MOV      r7,r0
        0x000028f6:    4602        .F      MOV      r2,r0
        0x000028f8:    482f        /H      LDR      r0,[pc,#188] ; [0x29b8] = 0x2dc
        0x000028fa:    460b        .F      MOV      r3,r1
        0x000028fc:    9105        ..      STR      r1,[sp,#0x14]
        0x000028fe:    2105        .!      MOVS     r1,#5
        0x00002900:    4478        xD      ADD      r0,r0,pc
        0x00002902:    f7fefe2d    ..-.    BL       __kernel_poly ; 0x1560
        0x00002906:    463a        :F      MOV      r2,r7
        0x00002908:    9b05        ..      LDR      r3,[sp,#0x14]
        0x0000290a:    f7fdfcfd    ....    BL       __aeabi_dmul ; 0x308
        0x0000290e:    462a        *F      MOV      r2,r5
        0x00002910:    4633        3F      MOV      r3,r6
        0x00002912:    f7fdfcf1    ....    BL       __aeabi_drsub ; 0x2f8
        0x00002916:    4607        .F      MOV      r7,r0
        0x00002918:    9101        ..      STR      r1,[sp,#4]
        0x0000291a:    4628        (F      MOV      r0,r5
        0x0000291c:    4631        1F      MOV      r1,r6
        0x0000291e:    9b09        ..      LDR      r3,[sp,#0x24]
        0x00002920:    9a0e        ..      LDR      r2,[sp,#0x38]
        0x00002922:    f7fdfcf1    ....    BL       __aeabi_dmul ; 0x308
        0x00002926:    9b09        ..      LDR      r3,[sp,#0x24]
        0x00002928:    9a0e        ..      LDR      r2,[sp,#0x38]
        0x0000292a:    f7fdfc3b    ..;.    BL       __aeabi_dadd ; 0x1a4
        0x0000292e:    2301        .#      MOVS     r3,#1
        0x00002930:    9104        ..      STR      r1,[sp,#0x10]
        0x00002932:    900c        ..      STR      r0,[sp,#0x30]
        0x00002934:    2200        ."      MOVS     r2,#0
        0x00002936:    079b        ..      LSLS     r3,r3,#30
        0x00002938:    4638        8F      MOV      r0,r7
        0x0000293a:    9901        ..      LDR      r1,[sp,#4]
        0x0000293c:    f7fdfcd6    ....    BL       __aeabi_dsub ; 0x2ec
        0x00002940:    9105        ..      STR      r1,[sp,#0x14]
        0x00002942:    900e        ..      STR      r0,[sp,#0x38]
        0x00002944:    463a        :F      MOV      r2,r7
        0x00002946:    4628        (F      MOV      r0,r5
        0x00002948:    4631        1F      MOV      r1,r6
        0x0000294a:    9b01        ..      LDR      r3,[sp,#4]
        0x0000294c:    f7fdfcdc    ....    BL       __aeabi_dmul ; 0x308
        0x00002950:    9b05        ..      LDR      r3,[sp,#0x14]
        0x00002952:    9a0e        ..      LDR      r2,[sp,#0x38]
        0x00002954:    f7fdfd40    ..@.    BL       __aeabi_ddiv ; 0x3d8
        0x00002958:    9b04        ..      LDR      r3,[sp,#0x10]
        0x0000295a:    9a0c        ..      LDR      r2,[sp,#0x30]
        0x0000295c:    f7fdfcc6    ....    BL       __aeabi_dsub ; 0x2ec
        0x00002960:    462a        *F      MOV      r2,r5
        0x00002962:    4633        3F      MOV      r3,r6
        0x00002964:    f7fdfcc2    ....    BL       __aeabi_dsub ; 0x2ec
        0x00002968:    2200        ."      MOVS     r2,#0
        0x0000296a:    4b14        .K      LDR      r3,[pc,#80] ; [0x29bc] = 0x3ff00000
        0x0000296c:    f7fdfcc4    ....    BL       __aeabi_drsub ; 0x2f8
        0x00002970:    4606        .F      MOV      r6,r0
        0x00002972:    9803        ..      LDR      r0,[sp,#0xc]
        0x00002974:    460d        .F      MOV      r5,r1
        0x00002976:    0500        ..      LSLS     r0,r0,#20
        0x00002978:    1941        A.      ADDS     r1,r0,r5
        0x0000297a:    1509        ..      ASRS     r1,r1,#20
        0x0000297c:    2900        .)      CMP      r1,#0
        0x0000297e:    dc12        ..      BGT      0x29a6 ; pow + 2530
        0x00002980:    4630        0F      MOV      r0,r6
        0x00002982:    4629        )F      MOV      r1,r5
        0x00002984:    9a03        ..      LDR      r2,[sp,#0xc]
        0x00002986:    f7fdfec2    ....    BL       __ARM_scalbn ; 0x70e
        0x0000298a:    f7fefdd3    ....    BL       __ARM_fpclassify ; 0x1534
        0x0000298e:    2804        .(      CMP      r0,#4
        0x00002990:    d101        ..      BNE      0x2996 ; pow + 2514
        0x00002992:    f7fefe61    ..a.    BL       __mathlib_dbl_underflow ; 0x1658
        0x00002996:    4630        0F      MOV      r0,r6
        0x00002998:    4629        )F      MOV      r1,r5
        0x0000299a:    9a03        ..      LDR      r2,[sp,#0xc]
        0x0000299c:    f7fdfeb7    ....    BL       __ARM_scalbn ; 0x70e
        0x000029a0:    4606        .F      MOV      r6,r0
        0x000029a2:    e001        ..      B        0x29a8 ; pow + 2532
        0x000029a4:    e004        ..      B        0x29b0 ; pow + 2540
        0x000029a6:    1829        ).      ADDS     r1,r5,r0
        0x000029a8:    460b        .F      MOV      r3,r1
        0x000029aa:    4632        2F      MOV      r2,r6
        0x000029ac:    4621        !F      MOV      r1,r4
        0x000029ae:    9808        ..      LDR      r0,[sp,#0x20]
        0x000029b0:    f7fdfcaa    ....    BL       __aeabi_dmul ; 0x308
        0x000029b4:    b01b        ..      ADD      sp,sp,#0x6c
        0x000029b6:    bdf0        ..      POP      {r4-r7,pc}
    $d
        0x000029b8:    000002dc    ....    DCD    732
        0x000029bc:    3ff00000    ...?    DCD    1072693248
    $t
    i.sqrt
    sqrt
        0x000029c0:    b5f8        ..      PUSH     {r3-r7,lr}
        0x000029c2:    4606        .F      MOV      r6,r0
        0x000029c4:    460c        .F      MOV      r4,r1
        0x000029c6:    f7fdfeb8    ....    BL       _dsqrt ; 0x73a
        0x000029ca:    1e05        ..      SUBS     r5,r0,#0
        0x000029cc:    460f        .F      MOV      r7,r1
        0x000029ce:    d000        ..      BEQ      0x29d2 ; sqrt + 18
        0x000029d0:    2001        .       MOVS     r0,#1
        0x000029d2:    4301        .C      ORRS     r1,r1,r0
        0x000029d4:    0049        I.      LSLS     r1,r1,#1
        0x000029d6:    480b        .H      LDR      r0,[pc,#44] ; [0x2a04] = 0x7ff00000
        0x000029d8:    0849        I.      LSRS     r1,r1,#1
        0x000029da:    1a41        A.      SUBS     r1,r0,r1
        0x000029dc:    0fc9        ..      LSRS     r1,r1,#31
        0x000029de:    d00d        ..      BEQ      0x29fc ; sqrt + 60
        0x000029e0:    2e00        ..      CMP      r6,#0
        0x000029e2:    d001        ..      BEQ      0x29e8 ; sqrt + 40
        0x000029e4:    2101        .!      MOVS     r1,#1
        0x000029e6:    e000        ..      B        0x29ea ; sqrt + 42
        0x000029e8:    2100        .!      MOVS     r1,#0
        0x000029ea:    430c        .C      ORRS     r4,r4,r1
        0x000029ec:    0061        a.      LSLS     r1,r4,#1
        0x000029ee:    0849        I.      LSRS     r1,r1,#1
        0x000029f0:    1a40        @.      SUBS     r0,r0,r1
        0x000029f2:    0fc0        ..      LSRS     r0,r0,#31
        0x000029f4:    d102        ..      BNE      0x29fc ; sqrt + 60
        0x000029f6:    2001        .       MOVS     r0,#1
        0x000029f8:    f7fefe48    ..H.    BL       __set_errno ; 0x168c
        0x000029fc:    4628        (F      MOV      r0,r5
        0x000029fe:    4639        9F      MOV      r1,r7
        0x00002a00:    bdf8        ..      POP      {r3-r7,pc}
    $d
        0x00002a02:    0000        ..      DCW    0
        0x00002a04:    7ff00000    ....    DCD    2146435072
    $t
    i.stackDump
    stackDump
        0x00002a08:    b510        ..      PUSH     {r4,lr}
        0x00002a0a:    4604        .F      MOV      r4,r0
        0x00002a0c:    6801        .h      LDR      r1,[r0,#0]
        0x00002a0e:    a010        ..      ADR      r0,{pc}+0x42 ; 0x2a50
        0x00002a10:    f7fefd68    ..h.    BL       __0printf$5 ; 0x14e4
        0x00002a14:    a011        ..      ADR      r0,{pc}+0x48 ; 0x2a5c
        0x00002a16:    6861        ah      LDR      r1,[r4,#4]
        0x00002a18:    f7fefd64    ..d.    BL       __0printf$5 ; 0x14e4
        0x00002a1c:    a012        ..      ADR      r0,{pc}+0x4c ; 0x2a68
        0x00002a1e:    68a1        .h      LDR      r1,[r4,#8]
        0x00002a20:    f7fefd60    ..`.    BL       __0printf$5 ; 0x14e4
        0x00002a24:    a013        ..      ADR      r0,{pc}+0x50 ; 0x2a74
        0x00002a26:    68e1        .h      LDR      r1,[r4,#0xc]
        0x00002a28:    f7fefd5c    ..\.    BL       __0printf$5 ; 0x14e4
        0x00002a2c:    a014        ..      ADR      r0,{pc}+0x54 ; 0x2a80
        0x00002a2e:    6921        !i      LDR      r1,[r4,#0x10]
        0x00002a30:    f7fefd58    ..X.    BL       __0printf$5 ; 0x14e4
        0x00002a34:    a015        ..      ADR      r0,{pc}+0x58 ; 0x2a8c
        0x00002a36:    6961        ai      LDR      r1,[r4,#0x14]
        0x00002a38:    f7fefd54    ..T.    BL       __0printf$5 ; 0x14e4
        0x00002a3c:    a016        ..      ADR      r0,{pc}+0x5c ; 0x2a98
        0x00002a3e:    69a1        .i      LDR      r1,[r4,#0x18]
        0x00002a40:    f7fefd50    ..P.    BL       __0printf$5 ; 0x14e4
        0x00002a44:    a017        ..      ADR      r0,{pc}+0x60 ; 0x2aa4
        0x00002a46:    69e1        .i      LDR      r1,[r4,#0x1c]
        0x00002a48:    f7fefd4c    ..L.    BL       __0printf$5 ; 0x14e4
        0x00002a4c:    bd10        ..      POP      {r4,pc}
    $d
        0x00002a4e:    0000        ..      DCW    0
        0x00002a50:    20203072    r0      DCD    538980466
        0x00002a54:    7830203d    = 0x    DCD    2016419901
        0x00002a58:    000a7825    %x..    DCD    686117
        0x00002a5c:    20203172    r1      DCD    538980722
        0x00002a60:    7830203d    = 0x    DCD    2016419901
        0x00002a64:    000a7825    %x..    DCD    686117
        0x00002a68:    20203272    r2      DCD    538980978
        0x00002a6c:    7830203d    = 0x    DCD    2016419901
        0x00002a70:    000a7825    %x..    DCD    686117
        0x00002a74:    20203372    r3      DCD    538981234
        0x00002a78:    7830203d    = 0x    DCD    2016419901
        0x00002a7c:    000a7825    %x..    DCD    686117
        0x00002a80:    20323172    r12     DCD    540160370
        0x00002a84:    7830203d    = 0x    DCD    2016419901
        0x00002a88:    000a7825    %x..    DCD    686117
        0x00002a8c:    2020726c    lr      DCD    538997356
        0x00002a90:    7830203d    = 0x    DCD    2016419901
        0x00002a94:    000a7825    %x..    DCD    686117
        0x00002a98:    20206370    pc      DCD    538993520
        0x00002a9c:    7830203d    = 0x    DCD    2016419901
        0x00002aa0:    000a7825    %x..    DCD    686117
        0x00002aa4:    20727370    psr     DCD    544371568
        0x00002aa8:    7830203d    = 0x    DCD    2016419901
        0x00002aac:    000a7825    %x..    DCD    686117
    $d.realdata
    .constdata
        0x00002ab0:    00000000    ....    DCD    0
        0x00002ab4:    00000020     ...    DCD    32
        0x00002ab8:    00000000    ....    DCD    0
        0x00002abc:    00000004    ....    DCD    4
        0x00002ac0:    0000000c    ....    DCD    12
        0x00002ac4:    00000024    $...    DCD    36
        0x00002ac8:    00000000    ....    DCD    0
        0x00002acc:    00000004    ....    DCD    4
        0x00002ad0:    0000002c    ,...    DCD    44
        0x00002ad4:    00000000    ....    DCD    0
        0x00002ad8:    00000000    ....    DCD    0
        0x00002adc:    00000004    ....    DCD    4
        0x00002ae0:    0000002c    ,...    DCD    44
        0x00002ae4:    00000000    ....    DCD    0
    .constdata
    atanhi
        0x00002ae8:    0561bb4f    O.a.    DCD    90291023
        0x00002aec:    3fddac67    g..?    DCD    1071492199
        0x00002af0:    54442d18    .-DT    DCD    1413754136
        0x00002af4:    3fe921fb    .!.?    DCD    1072243195
        0x00002af8:    d281f69b    ....    DCD    3531732635
        0x00002afc:    3fef730b    .s.?    DCD    1072657163
        0x00002b00:    54442d18    .-DT    DCD    1413754136
        0x00002b04:    3ff921fb    .!.?    DCD    1073291771
    atanlo
        0x00002b08:    222f65e2    .e/"    DCD    573531618
        0x00002b0c:    3c7a2b7f    .+z<    DCD    1014639487
        0x00002b10:    33145c07    .\.3    DCD    856972295
        0x00002b14:    3c81a626    &..<    DCD    1015129638
        0x00002b18:    7af0cbbd    ...z    DCD    2062601149
        0x00002b1c:    3c700788    ..p<    DCD    1013974920
        0x00002b20:    33145c07    .\.3    DCD    856972295
        0x00002b24:    3c91a626    &..<    DCD    1016178214
    aTodd
        0x00002b28:    9998ebc4    ....    DCD    2576935876
        0x00002b2c:    bfc99999    ....    DCD    3217660313
        0x00002b30:    fe231671    q.#.    DCD    4263712369
        0x00002b34:    bfbc71c6    .q..    DCD    3216798150
        0x00002b38:    af749a6d    m.t.    DCD    2943654509
        0x00002b3c:    bfb3b0f2    ....    DCD    3216224498
        0x00002b40:    52defd9a    ...R    DCD    1390345626
        0x00002b44:    bfadde2d    -...    DCD    3215842861
        0x00002b48:    2c6a6c2f    /lj,    DCD    745172015
        0x00002b4c:    bfa2b444    D...    DCD    3215111236
    aTeven
        0x00002b50:    5555550d    .UUU    DCD    1431655693
        0x00002b54:    3fd55555    UU.?    DCD    1070945621
        0x00002b58:    920083ff    ....    DCD    2449507327
        0x00002b5c:    3fc24924    $I.?    DCD    1069697316
        0x00002b60:    c54c206e    n L.    DCD    3310100590
        0x00002b64:    3fb745cd    .E.?    DCD    1068975565
        0x00002b68:    a0d03d51    Q=..    DCD    2698001745
        0x00002b6c:    3fb10d66    f..?    DCD    1068567910
        0x00002b70:    24760deb    ..v$    DCD    611716587
        0x00002b74:    3fa97b4b    K{.?    DCD    1068071755
        0x00002b78:    e322da11    ..".    DCD    3810712081
        0x00002b7c:    3f90ad3a    :..?    DCD    1066446138
    .constdata
    bp
        0x00002b80:    00000000    ....    DCD    0
        0x00002b84:    3ff00000    ...?    DCD    1072693248
        0x00002b88:    00000000    ....    DCD    0
        0x00002b8c:    3ff80000    ...?    DCD    1073217536
    dp_h
        0x00002b90:    00000000    ....    DCD    0
        0x00002b94:    00000000    ....    DCD    0
        0x00002b98:    40000000    ...@    DCD    1073741824
        0x00002b9c:    3fe2b803    ...?    DCD    1071822851
    dp_l
        0x00002ba0:    00000000    ....    DCD    0
        0x00002ba4:    00000000    ....    DCD    0
        0x00002ba8:    43cfd006    ...C    DCD    1137692678
        0x00002bac:    3e4cfdeb    ..L>    DCD    1045233131
    L
        0x00002bb0:    33333303    .333    DCD    858993411
        0x00002bb4:    3fe33333    33.?    DCD    1071854387
        0x00002bb8:    db6fabff    ..o.    DCD    3681528831
        0x00002bbc:    3fdb6db6    .m.?    DCD    1071345078
        0x00002bc0:    518f264d    M&.Q    DCD    1368335949
        0x00002bc4:    3fd55555    UU.?    DCD    1070945621
        0x00002bc8:    a91d4101    .A..    DCD    2837266689
        0x00002bcc:    3fd17460    `t.?    DCD    1070691424
        0x00002bd0:    93c9db65    e...    DCD    2479479653
        0x00002bd4:    3fcd864a    J..?    DCD    1070433866
        0x00002bd8:    4a454eef    .NEJ    DCD    1246056175
        0x00002bdc:    3fca7e28    (~.?    DCD    1070235176
    P
        0x00002be0:    5555553e    >UUU    DCD    1431655742
        0x00002be4:    3fc55555    UU.?    DCD    1069897045
        0x00002be8:    16bebd93    ....    DCD    381599123
        0x00002bec:    bf66c16c    l.f.    DCD    3211182444
        0x00002bf0:    af25de2c    ,.%.    DCD    2938494508
        0x00002bf4:    3f11566a    jV.?    DCD    1058100842
        0x00002bf8:    c5d26bf1    .k..    DCD    3318901745
        0x00002bfc:    bebbbd41    A...    DCD    3199974721
        0x00002c00:    72bea4d0    ...r    DCD    1925096656
        0x00002c04:    3e663769    i7f>    DCD    1046886249
    .constdata
    __mathlib_zero
        0x00002c08:    00000000    ....    DCD    0
        0x00002c0c:    00000000    ....    DCD    0
    Region$$Table$$Base
        0x00002c10:    00002c30    0,..    DCD    11312
        0x00002c14:    20000000    ...     DCD    536870912
        0x00002c18:    0000006c    l...    DCD    108
        0x00002c1c:    0000166c    l...    DCD    5740
        0x00002c20:    00002c9c    .,..    DCD    11420
        0x00002c24:    2000006c    l..     DCD    536871020
        0x00002c28:    000009b4    ....    DCD    2484
        0x00002c2c:    0000167c    |...    DCD    5756
    Region$$Table$$Limit

** Section #2 'ER_RW' (SHT_PROGBITS) [SHF_ALLOC + SHF_WRITE]
    Size   : 108 bytes (alignment 4)
    Address: 0x20000000


** Section #3 'ER_ZI' (SHT_NOBITS) [SHF_ALLOC + SHF_WRITE]
    Size   : 2484 bytes (alignment 8)
    Address: 0x2000006c


** Section #4 '.debug_abbrev' (SHT_PROGBITS)
    Size   : 1476 bytes


** Section #5 '.debug_frame' (SHT_PROGBITS)
    Size   : 3304 bytes


** Section #6 '.debug_info' (SHT_PROGBITS)
    Size   : 41788 bytes


** Section #7 '.debug_line' (SHT_PROGBITS)
    Size   : 13384 bytes


** Section #8 '.debug_loc' (SHT_PROGBITS)
    Size   : 5732 bytes


** Section #9 '.debug_macinfo' (SHT_PROGBITS)
    Size   : 251100 bytes


** Section #10 '.debug_pubnames' (SHT_PROGBITS)
    Size   : 2850 bytes


** Section #11 '.symtab' (SHT_SYMTAB)
    Size   : 9136 bytes (alignment 4)
    String table #12 '.strtab'
    Last local symbol no. 356


** Section #12 '.strtab' (SHT_STRTAB)
    Size   : 7384 bytes


** Section #13 '.note' (SHT_NOTE)
    Size   : 28 bytes (alignment 4)


** Section #14 '.comment' (SHT_PROGBITS)
    Size   : 17364 bytes


** Section #15 '.shstrtab' (SHT_STRTAB)
    Size   : 156 bytes


